(dp1
S'output'
p2
S"<type 'exceptions.NameError'> name 'url' is not defined"
p3
sS'layer'
p4
S'/home/fernando/web2py/applications/admanager/views/ramais/form_sip_iax.html'
p5
sS'code'
p6
S'response.write(\'<!DOCTYPE html>\\n<html lang="pt-br">\\n<head>\\n\\t\\n\\t<!-- start: Meta -->\\n\\t<meta charset="utf-8">\\n\\t<title>ForIP Manager</title>\\n\\t<meta name="description" content="ADManager 2.5">\\n\\t<meta name="author" content="Fernando Vieira - ForIP">\\n\\t<meta name="keyword" content="Genius, Dashboard, Bootstrap, Admin, Template, Theme, Responsive, Fluid, Retina">\\n\\t<!-- end: Meta -->\\n\\t\\n\\t<!-- start: Mobile Specific -->\\n\\t<meta name="viewport" content="width=device-width, initial-scale=1">\\n\\t<!-- end: Mobile Specific -->\\n\\t\\n\\t<!-- start: CSS -->\\n\\t<link href="\', escape=False)\nresponse.write(URL(a=\'admanager\', c=\'static\', f=\'css\'))\nresponse.write(\'/web2py.css" rel="stylesheet">\\n\\t<link href="\', escape=False)\nresponse.write(URL(a=\'admanager\', c=\'static\', f=\'css\'))\nresponse.write(\'/web2py_bootstrap.css" rel="stylesheet">\\n\\n\\t<link href="\', escape=False)\nresponse.write(URL(a=\'admanager\', c=\'static\', f=\'css\'))\nresponse.write(\'/bootstrap.min.css" rel="stylesheet">\\n\\t<link href="\', escape=False)\nresponse.write(URL(a=\'admanager\', c=\'static\', f=\'css\'))\nresponse.write(\'/style.min.css" rel="stylesheet">\\n\\t<link href="\', escape=False)\nresponse.write(URL(a=\'admanager\', c=\'static\', f=\'css\'))\nresponse.write(\'/retina.min.css" rel="stylesheet">\\n\\t<link href="\', escape=False)\nresponse.write(URL(a=\'admanager\', c=\'static\', f=\'css\'))\nresponse.write(\'/print.css" rel="stylesheet" type="text/css" media="print"/>\\n\\t<!-- end: CSS -->\\n\\t\\n\\n\\t<!-- The HTML5 shim, for IE6-8 support of HTML5 elements -->\\n\\t<!--[if lt IE 9]>\\n\\t\\t\\n\\t  \\t<script src="http://html5shim.googlecode.com/svn/trunk/html5.js"></script>\\n\\t\\t<script src="\', escape=False)\nresponse.write(URL(a=\'admanager\', c=\'static\', f=\'js\'))\nresponse.write(\'/respond.min.js"></script>\\n\\t\\t\\n\\t<![endif]-->\\n\\t\\n\\t<!-- start: Favicon and Touch Icons -->\\n\\t<link rel="apple-touch-icon-precomposed" sizes="144x144" href="\', escape=False)\nresponse.write(URL(a=\'admanager\', c=\'static\', f=\'ico\'))\nresponse.write(\'/apple-touch-icon-144-precomposed.png">\\n\\t<link rel="apple-touch-icon-precomposed" sizes="114x114" href="\', escape=False)\nresponse.write(URL(a=\'admanager\', c=\'static\', f=\'ico\'))\nresponse.write(\'/apple-touch-icon-114-precomposed.png">\\n\\t<link rel="apple-touch-icon-precomposed" sizes="72x72" href="\', escape=False)\nresponse.write(URL(a=\'admanager\', c=\'static\', f=\'ico\'))\nresponse.write(\'/apple-touch-icon-72-precomposed.png">\\n\\t<link rel="apple-touch-icon-precomposed" sizes="57x57" href="\', escape=False)\nresponse.write(URL(a=\'admanager\', c=\'static\', f=\'ico\'))\nresponse.write(\'/apple-touch-icon-57-precomposed.png">\\n\\t<link rel="shortcut icon" href="\', escape=False)\nresponse.write(URL(a=\'admanager\', c=\'static\', f=\'ico\'))\nresponse.write(\'/favicon.png">\\n\\t<!-- end: Favicon and Touch Icons -->\\t\\n\\t\\t\\n</head>\\n\\n<body>\\n\\n\\t\\t<!-- start: Header -->\\n\\t<header class="navbar">\\n\\t\\t<div class="flash">\', escape=False)\nresponse.write(response.flash or \'\')\nresponse.write(\'</div>\\n\\t\\t<div class="container">\\n\\t\\t\\t<button class="navbar-toggle" type="button" data-toggle="collapse" data-target=".sidebar-nav.nav-collapse">\\n\\t\\t\\t      <span class="icon-bar"></span>\\n\\t\\t\\t      <span class="icon-bar"></span>\\n\\t\\t\\t      <span class="icon-bar"></span>\\n\\t\\t\\t</button>\\n\\t\\t\\t<a id="main-menu-toggle" class="hidden-xs open"><i class="icon-reorder"></i></a>\\t\\t\\n\\t\\t\\t<a class="navbar-brand col-md-2 col-sm-1 col-xs-2" href="index-2.html"><span>ADManager</span></a>\\n\\t\\t\\t<!--<div id="search" class="col-sm-5 col-xs-8 col-lg-3">\\n\\t\\t\\t\\t<select>\\n\\t\\t\\t\\t\\t<option>everything</option>\\n\\t\\t\\t\\t\\t<option>messages</option>\\n\\t\\t\\t\\t\\t<option>comments</option>\\n\\t\\t\\t\\t\\t<option>users</option>\\n\\t\\t\\t  \\t</select>\\n\\t\\t\\t\\t<input type="text" placeholder="search" />\\n\\t\\t\\t\\t<i class="icon-search"></i>\\n\\t\\t\\t</div>-->\\n\\t\\t\\t<!-- start: Header Menu -->\\n\\t\\t\\t<div class="nav-no-collapse header-nav">\\n\\t\\t\\t\\t<ul class="nav navbar-nav pull-right">\\n\\t\\t\\t\\t\\t<li class="dropdown hidden-xs">\\n\\t\\t\\t\\t\\t\\t<a class="btn dropdown-toggle" data-toggle="dropdown" href="ui-sliders-progress.html#">\\n\\t\\t\\t\\t\\t\\t\\t<i class="icon-warning-sign"></i>\\n\\t\\t\\t\\t\\t\\t\\t<span class="number">11</span>\\n\\t\\t\\t\\t\\t\\t</a>\\n\\t\\t\\t\\t\\t\\t<ul class="dropdown-menu notifications">\\n\\t\\t\\t\\t\\t\\t\\t<li class="dropdown-menu-title">\\n\\t\\t\\t\\t\\t\\t\\t\\t<span>You have 11 notifications</span>\\n\\t\\t\\t\\t\\t\\t\\t</li>\\t\\n                        \\t<li>\\n                                <a href="ui-sliders-progress.html#">\\n\\t\\t\\t\\t\\t\\t\\t\\t\\t<span class="icon blue"><i class="icon-user"></i></span>\\n\\t\\t\\t\\t\\t\\t\\t\\t\\t<span class="message">New user registration</span>\\n\\t\\t\\t\\t\\t\\t\\t\\t\\t<span class="time">1 min</span> \\n                                </a>\\n                            </li>\\n\\t\\t\\t\\t\\t\\t\\t<li>\\n                                <a href="ui-sliders-progress.html#">\\n\\t\\t\\t\\t\\t\\t\\t\\t\\t<span class="icon green"><i class="icon-comment-alt"></i></span>\\n\\t\\t\\t\\t\\t\\t\\t\\t\\t<span class="message">New comment</span>\\n\\t\\t\\t\\t\\t\\t\\t\\t\\t<span class="time">7 min</span> \\n                                </a>\\n                            </li>\\n\\t\\t\\t\\t\\t\\t\\t<li>\\n                                <a href="ui-sliders-progress.html#">\\n\\t\\t\\t\\t\\t\\t\\t\\t\\t<span class="icon green"><i class="icon-comment-alt"></i></span>\\n\\t\\t\\t\\t\\t\\t\\t\\t\\t<span class="message">New comment</span>\\n\\t\\t\\t\\t\\t\\t\\t\\t\\t<span class="time">8 min</span> \\n                                </a>\\n                            </li>\\n\\t\\t\\t\\t\\t\\t\\t<li>\\n                                <a href="ui-sliders-progress.html#">\\n\\t\\t\\t\\t\\t\\t\\t\\t\\t<span class="icon green"><i class="icon-comment-alt"></i></span>\\n\\t\\t\\t\\t\\t\\t\\t\\t\\t<span class="message">New comment</span>\\n\\t\\t\\t\\t\\t\\t\\t\\t\\t<span class="time">16 min</span> \\n                                </a>\\n                            </li>\\n\\t\\t\\t\\t\\t\\t\\t<li>\\n                                <a href="ui-sliders-progress.html#">\\n\\t\\t\\t\\t\\t\\t\\t\\t\\t<span class="icon blue"><i class="icon-user"></i></span>\\n\\t\\t\\t\\t\\t\\t\\t\\t\\t<span class="message">New user registration</span>\\n\\t\\t\\t\\t\\t\\t\\t\\t\\t<span class="time">36 min</span> \\n                                </a>\\n                            </li>\\n\\t\\t\\t\\t\\t\\t\\t<li>\\n                                <a href="ui-sliders-progress.html#">\\n\\t\\t\\t\\t\\t\\t\\t\\t\\t<span class="icon yellow"><i class="icon-shopping-cart"></i></span>\\n\\t\\t\\t\\t\\t\\t\\t\\t\\t<span class="message">2 items sold</span>\\n\\t\\t\\t\\t\\t\\t\\t\\t\\t<span class="time">1 hour</span> \\n                                </a>\\n                            </li>\\n\\t\\t\\t\\t\\t\\t\\t<li class="warning">\\n                                <a href="ui-sliders-progress.html#">\\n\\t\\t\\t\\t\\t\\t\\t\\t\\t<span class="icon red"><i class="icon-user"></i></span>\\n\\t\\t\\t\\t\\t\\t\\t\\t\\t<span class="message">User deleted account</span>\\n\\t\\t\\t\\t\\t\\t\\t\\t\\t<span class="time">2 hour</span> \\n                                </a>\\n                            </li>\\n\\t\\t\\t\\t\\t\\t\\t<li class="warning">\\n                                <a href="ui-sliders-progress.html#">\\n\\t\\t\\t\\t\\t\\t\\t\\t\\t<span class="icon red"><i class="icon-shopping-cart"></i></span>\\n\\t\\t\\t\\t\\t\\t\\t\\t\\t<span class="message">Transaction was canceled</span>\\n\\t\\t\\t\\t\\t\\t\\t\\t\\t<span class="time">6 hour</span> \\n                                </a>\\n                            </li>\\n\\t\\t\\t\\t\\t\\t\\t<li>\\n                                <a href="ui-sliders-progress.html#">\\n\\t\\t\\t\\t\\t\\t\\t\\t\\t<span class="icon green"><i class="icon-comment-alt"></i></span>\\n\\t\\t\\t\\t\\t\\t\\t\\t\\t<span class="message">New comment</span>\\n\\t\\t\\t\\t\\t\\t\\t\\t\\t<span class="time">yesterday</span> \\n                                </a>\\n                            </li>\\n\\t\\t\\t\\t\\t\\t\\t<li>\\n                                <a href="ui-sliders-progress.html#">\\n\\t\\t\\t\\t\\t\\t\\t\\t\\t<span class="icon blue"><i class="icon-user"></i></span>\\n\\t\\t\\t\\t\\t\\t\\t\\t\\t<span class="message">New user registration</span>\\n\\t\\t\\t\\t\\t\\t\\t\\t\\t<span class="time">yesterday</span> \\n                                </a>\\n                            </li>\\n                            <li class="dropdown-menu-sub-footer">\\n                        \\t\\t<a>View all notifications</a>\\n\\t\\t\\t\\t\\t\\t\\t</li>\\t\\n\\t\\t\\t\\t\\t\\t</ul>\\n\\t\\t\\t\\t\\t</li>\\n\\t\\t\\t\\t\\t<!-- start: Notifications Dropdown -->\\n\\t\\t\\t\\t\\t<li class="dropdown hidden-xs">\\n\\t\\t\\t\\t\\t\\t<a class="btn dropdown-toggle" data-toggle="dropdown" href="ui-sliders-progress.html#">\\n\\t\\t\\t\\t\\t\\t\\t<i class="icon-tasks"></i>\\n\\t\\t\\t\\t\\t\\t\\t<span class="number">17</span>\\n\\t\\t\\t\\t\\t\\t</a>\\n\\t\\t\\t\\t\\t\\t<ul class="dropdown-menu tasks">\\n\\t\\t\\t\\t\\t\\t\\t<li>\\n\\t\\t\\t\\t\\t\\t\\t\\t<span class="dropdown-menu-title">You have 17 tasks in progress</span>\\n                        \\t</li>\\n\\t\\t\\t\\t\\t\\t\\t<li>\\n                                <a href="ui-sliders-progress.html#">\\n\\t\\t\\t\\t\\t\\t\\t\\t\\t<span class="header">\\n\\t\\t\\t\\t\\t\\t\\t\\t\\t\\t<span class="title">iOS Development</span>\\n\\t\\t\\t\\t\\t\\t\\t\\t\\t\\t<span class="percent"></span>\\n\\t\\t\\t\\t\\t\\t\\t\\t\\t</span>\\n                                    <div class="taskProgress progressSlim progressBlue">80</div> \\n                                </a>\\n                            </li>\\n                            <li>\\n                                <a href="ui-sliders-progress.html#">\\n\\t\\t\\t\\t\\t\\t\\t\\t\\t<span class="header">\\n\\t\\t\\t\\t\\t\\t\\t\\t\\t\\t<span class="title">Android Development</span>\\n\\t\\t\\t\\t\\t\\t\\t\\t\\t\\t<span class="percent"></span>\\n\\t\\t\\t\\t\\t\\t\\t\\t\\t</span>\\n                                    <div class="taskProgress progressSlim progressYellow">47</div> \\n                                </a>\\n                            </li>\\n                            <li>\\n                                <a href="ui-sliders-progress.html#">\\n\\t\\t\\t\\t\\t\\t\\t\\t\\t<span class="header">\\n\\t\\t\\t\\t\\t\\t\\t\\t\\t\\t<span class="title">Django Project For Google</span>\\n\\t\\t\\t\\t\\t\\t\\t\\t\\t\\t<span class="percent"></span>\\n\\t\\t\\t\\t\\t\\t\\t\\t\\t</span>\\n                                    <div class="taskProgress progressSlim progressRed">32</div> \\n                                </a>\\n                            </li>\\n\\t\\t\\t\\t\\t\\t\\t<li>\\n                                <a href="ui-sliders-progress.html#">\\n\\t\\t\\t\\t\\t\\t\\t\\t\\t<span class="header">\\n\\t\\t\\t\\t\\t\\t\\t\\t\\t\\t<span class="title">SEO for new sites</span>\\n\\t\\t\\t\\t\\t\\t\\t\\t\\t\\t<span class="percent"></span>\\n\\t\\t\\t\\t\\t\\t\\t\\t\\t</span>\\n                                    <div class="taskProgress progressSlim progressGreen">63</div> \\n                                </a>\\n                            </li>\\n                            <li>\\n                                <a href="ui-sliders-progress.html#">\\n\\t\\t\\t\\t\\t\\t\\t\\t\\t<span class="header">\\n\\t\\t\\t\\t\\t\\t\\t\\t\\t\\t<span class="title">New blog posts</span>\\n\\t\\t\\t\\t\\t\\t\\t\\t\\t\\t<span class="percent"></span>\\n\\t\\t\\t\\t\\t\\t\\t\\t\\t</span>\\n                                    <div class="taskProgress progressSlim progressPink">80</div> \\n                                </a>\\n                            </li>\\n\\t\\t\\t\\t\\t\\t\\t<li>\\n                        \\t\\t<a class="dropdown-menu-sub-footer">View all tasks</a>\\n\\t\\t\\t\\t\\t\\t\\t</li>\\t\\n\\t\\t\\t\\t\\t\\t</ul>\\n\\t\\t\\t\\t\\t</li>\\n\\t\\t\\t\\t\\t<!-- end: Notifications Dropdown -->\\n\\t\\t\\t\\t\\t<!-- start: Message Dropdown -->\\n\\t\\t\\t\\t\\t<li class="dropdown hidden-xs">\\n\\t\\t\\t\\t\\t\\t<a class="btn dropdown-toggle" data-toggle="dropdown" href="ui-sliders-progress.html#">\\n\\t\\t\\t\\t\\t\\t\\t<i class="icon-envelope"></i>\\n\\t\\t\\t\\t\\t\\t\\t<span class="number">9</span>\\n\\t\\t\\t\\t\\t\\t</a>\\n\\t\\t\\t\\t\\t\\t<ul class="dropdown-menu messages">\\n\\t\\t\\t\\t\\t\\t\\t<li>\\n\\t\\t\\t\\t\\t\\t\\t\\t<span class="dropdown-menu-title">You have 9 messages</span>\\n\\t\\t\\t\\t\\t\\t\\t</li>\\t\\n                        \\t<li>\\n                                <a href="ui-sliders-progress.html#">\\n\\t\\t\\t\\t\\t\\t\\t\\t\\t<span class="avatar"><img src="\', escape=False)\nresponse.write(URL(a=\'admanager\', c=\'static\', f=\'images\'))\nresponse.write(\'/avatar.jpg" alt="Avatar"></span>\\n\\t\\t\\t\\t\\t\\t\\t\\t\\t<span class="header">\\n\\t\\t\\t\\t\\t\\t\\t\\t\\t\\t<span class="from">\\n\\t\\t\\t\\t\\t\\t\\t\\t\\t    \\t\\xc5\\x81ukasz Holeczek\\n\\t\\t\\t\\t\\t\\t\\t\\t\\t     </span>\\n\\t\\t\\t\\t\\t\\t\\t\\t\\t\\t<span class="time">\\n\\t\\t\\t\\t\\t\\t\\t\\t\\t    \\t6 min\\n\\t\\t\\t\\t\\t\\t\\t\\t\\t    </span>\\n\\t\\t\\t\\t\\t\\t\\t\\t\\t</span>\\n                                    <span class="message">\\n                                        Lorem ipsum dolor sit amet consectetur adipiscing elit, et al commore\\n                                    </span>  \\n                                </a>\\n                            </li>\\n                            <li>\\n                                <a href="ui-sliders-progress.html#">\\n\\t\\t\\t\\t\\t\\t\\t\\t\\t<span class="avatar"><img src="\', escape=False)\nresponse.write(URL(a=\'admanager\', c=\'static\', f=\'images\'))\nresponse.write(\'/avatar2.jpg" alt="Avatar"></span>\\n\\t\\t\\t\\t\\t\\t\\t\\t\\t<span class="header">\\n\\t\\t\\t\\t\\t\\t\\t\\t\\t\\t<span class="from">\\n\\t\\t\\t\\t\\t\\t\\t\\t\\t    \\tMegan Abott\\n\\t\\t\\t\\t\\t\\t\\t\\t\\t     </span>\\n\\t\\t\\t\\t\\t\\t\\t\\t\\t\\t<span class="time">\\n\\t\\t\\t\\t\\t\\t\\t\\t\\t    \\t56 min\\n\\t\\t\\t\\t\\t\\t\\t\\t\\t    </span>\\n\\t\\t\\t\\t\\t\\t\\t\\t\\t</span>\\n                                    <span class="message">\\n                                        Lorem ipsum dolor sit amet consectetur adipiscing elit, et al commore\\n                                    </span>  \\n                                </a>\\n                            </li>\\n                            <li>\\n                                <a href="ui-sliders-progress.html#">\\n\\t\\t\\t\\t\\t\\t\\t\\t\\t<span class="avatar"><img src="\', escape=False)\nresponse.write(URL(a=\'admanager\', c=\'static\', f=\'images\'))\nresponse.write(\'/avatar3.jpg" alt="Avatar"></span>\\n\\t\\t\\t\\t\\t\\t\\t\\t\\t<span class="header">\\n\\t\\t\\t\\t\\t\\t\\t\\t\\t\\t<span class="from">\\n\\t\\t\\t\\t\\t\\t\\t\\t\\t    \\tKate Ross\\n\\t\\t\\t\\t\\t\\t\\t\\t\\t     </span>\\n\\t\\t\\t\\t\\t\\t\\t\\t\\t\\t<span class="time">\\n\\t\\t\\t\\t\\t\\t\\t\\t\\t    \\t3 hours\\n\\t\\t\\t\\t\\t\\t\\t\\t\\t    </span>\\n\\t\\t\\t\\t\\t\\t\\t\\t\\t</span>\\n                                    <span class="message">\\n                                        Lorem ipsum dolor sit amet consectetur adipiscing elit, et al commore\\n                                    </span>  \\n                                </a>\\n                            </li>\\n\\t\\t\\t\\t\\t\\t\\t<li>\\n                                <a href="ui-sliders-progress.html#">\\n\\t\\t\\t\\t\\t\\t\\t\\t\\t<span class="avatar"><img src="\', escape=False)\nresponse.write(URL(a=\'admanager\', c=\'static\', f=\'images\'))\nresponse.write(\'/avatar4.jpg" alt="Avatar"></span>\\n\\t\\t\\t\\t\\t\\t\\t\\t\\t<span class="header">\\n\\t\\t\\t\\t\\t\\t\\t\\t\\t\\t<span class="from">\\n\\t\\t\\t\\t\\t\\t\\t\\t\\t    \\tJulie Blank\\n\\t\\t\\t\\t\\t\\t\\t\\t\\t     </span>\\n\\t\\t\\t\\t\\t\\t\\t\\t\\t\\t<span class="time">\\n\\t\\t\\t\\t\\t\\t\\t\\t\\t    \\tyesterday\\n\\t\\t\\t\\t\\t\\t\\t\\t\\t    </span>\\n\\t\\t\\t\\t\\t\\t\\t\\t\\t</span>\\n                                    <span class="message">\\n                                        Lorem ipsum dolor sit amet consectetur adipiscing elit, et al commore\\n                                    </span>  \\n                                </a>\\n                            </li>\\n                            <li>\\n                                <a href="ui-sliders-progress.html#">\\n\\t\\t\\t\\t\\t\\t\\t\\t\\t<span class="avatar"><img src="\', escape=False)\nresponse.write(URL(a=\'admanager\', c=\'static\', f=\'images\'))\nresponse.write(\'/avatar5.jpg" alt="Avatar"></span>\\n\\t\\t\\t\\t\\t\\t\\t\\t\\t<span class="header">\\n\\t\\t\\t\\t\\t\\t\\t\\t\\t\\t<span class="from">\\n\\t\\t\\t\\t\\t\\t\\t\\t\\t    \\tJane Sanders\\n\\t\\t\\t\\t\\t\\t\\t\\t\\t     </span>\\n\\t\\t\\t\\t\\t\\t\\t\\t\\t\\t<span class="time">\\n\\t\\t\\t\\t\\t\\t\\t\\t\\t    \\tJul 25, 2012\\n\\t\\t\\t\\t\\t\\t\\t\\t\\t    </span>\\n\\t\\t\\t\\t\\t\\t\\t\\t\\t</span>\\n                                    <span class="message">\\n                                        Lorem ipsum dolor sit amet consectetur adipiscing elit, et al commore\\n                                    </span>  \\n                                </a>\\n                            </li>\\n\\t\\t\\t\\t\\t\\t\\t<li>\\n                        \\t\\t<a class="dropdown-menu-sub-footer">View all messages</a>\\n\\t\\t\\t\\t\\t\\t\\t</li>\\t\\n\\t\\t\\t\\t\\t\\t</ul>\\n\\t\\t\\t\\t\\t</li>\\n\\t\\t\\t\\t\\t<!-- end: Message Dropdown -->\\n\\t\\t\\t\\t\\t<li>\\n\\t\\t\\t\\t\\t\\t<a class="btn dropdown-toggle" data-toggle="dropdown">\\n\\t\\t\\t\\t\\t\\t<i class="icon-wrench"></i></a>\\n\\n\\t\\t\\t\\t\\t\\t<ul class="dropdown-menu">\\n\\t\\t\\t\\t\\t\\t\\t<li><a href="\', escape=False)\nresponse.write(URL(a=\'admanager\', c=\'initial\', f=\'profile\'))\nresponse.write(\'"><i class="icon-user"></i> Profile</a></li>\\n\\t\\t\\t\\t\\t\\t\\t<li><a href="ui-elements.html#"><i class="icon-cog"></i> Settings</a></li>\\n\\t\\t\\t\\t\\t\\t\\t<li><a href="\', escape=False)\nresponse.write(URL(a=\'admanager\', c=\'initial\', f=\'change_password\'))\nresponse.write(\'"><i class="icon-key"></i> Trocar senha</a></li>\\n\\t\\t\\t\\t\\t\\t\\t<li><a href="\', escape=False)\nresponse.write(URL(a=\'admanager\', c=\'initial\', f=\'user/logout\'))\nresponse.write(\'"><i class="icon-off"></i> Logout</a></li>\\n\\t\\t\\t\\t\\t\\t</ul>\\n\\t\\t\\t\\t\\t\\t\\n\\t\\t\\t\\t\\t</li>\\n\\t\\t\\t\\t\\t<!-- start: User Dropdown -->\\n\\t\\t\\t\\t\\t<!--<li class="dropdown">\\n\\t\\t\\t\\t\\t\\t<a class="btn account dropdown-toggle" data-toggle="dropdown" href="ui-sliders-progress.html#">\\n\\t\\t\\t\\t\\t\\t\\t<div class="avatar"><img src="\', escape=False)\nresponse.write(URL(a=\'admanager\', c=\'static\', f=\'images\'))\nresponse.write(\'/avatar.jpg" alt="Avatar"></div>\\n\\t\\t\\t\\t\\t\\t\\t<div class="user">\\n\\t\\t\\t\\t\\t\\t\\t\\t<span class="hello">Welcome!</span>\\n\\t\\t\\t\\t\\t\\t\\t\\t<span class="name">\\xc5\\x81ukasz Holeczek</span>\\n\\t\\t\\t\\t\\t\\t\\t</div>\\n\\t\\t\\t\\t\\t\\t</a>\\n\\t\\t\\t\\t\\t\\t<ul class="dropdown-menu">\\n\\t\\t\\t\\t\\t\\t\\t<li><a href="ui-sliders-progress.html#"><i class="icon-user"></i> Profile</a></li>\\n\\t\\t\\t\\t\\t\\t\\t<li><a href="ui-sliders-progress.html#"><i class="icon-cog"></i> Settings</a></li>\\n\\t\\t\\t\\t\\t\\t\\t<li><a href="ui-sliders-progress.html#"><i class="icon-envelope"></i> Messages</a></li>\\n\\t\\t\\t\\t\\t\\t\\t<li><a href="page-login.html"><i class="icon-off"></i> Logout</a></li>\\n\\t\\t\\t\\t\\t\\t</ul>\\n\\t\\t\\t\\t\\t</li>-->\\n\\t\\t\\t\\t\\t<!-- end: User Dropdown -->\\n\\t\\t\\t\\t</ul>\\n\\t\\t\\t</div>\\n\\t\\t\\t<!-- end: Header Menu -->\\n\\t\\t\\t\\n\\t\\t</div>\\t\\n\\t</header>\\n\\t<!-- end: Header -->\\n\\t\\n\\t\\t<div class="container">\\n\\t\\t<div class="row">\\n\\n\\t\\t\\t<!-- start: Main Menu -->\\n\\t\\t\\t<div id="sidebar-left" class="col-lg-2 col-sm-1 ">\\n\\t\\t\\t\\t\\t\\t\\t\\t\\n\\t\\t\\t\\t\', escape=False)\nresponse.write(\'<div class="sidebar-nav nav-collapse collapse navbar-collapse">\\n\\t<ul class="nav main-menu">\\n\\t\\t\\t\\t\\n\\t\\t\', escape=False)\nmenu \t= \tdb(db.f_menu).select(orderby=db.f_menu.ordem)\nfor dado in menu:\n    #print dado\n    if dado.submenu == False:\n        if (auth.has_membership(dado.nome) or auth.has_membership(\'administrador\')):\n            response.write(\'\\n\\t\\t\\t\\t\\t\\t<li><a href="\', escape=False)\n            response.write(URL(a=\'admanager\', c=dado.controller, f=dado.funcao))\n            response.write(\'"><i class="\', escape=False)\n            response.write(dado.icone)\n            response.write(\'"></i><span class="hidden-sm text"> \', escape=False)\n            response.write(dado.nome)\n            response.write(\'</span></a></li>\\n\\t\\t\\t\\t\\t\', escape=False)\n            pass\n        pass\n    if dado.submenu == True:\n        if (auth.has_membership(dado.nome) or auth.has_membership(\'administrador\')):\n            response.write(\'\\n\\t\\t\\t\\t\\t\\t<li>\\n\\t\\t\\t\\t\\t\\t<a class="dropmenu" href="ui-sliders-progress.html#"><i class="icon-list-alt"></i><span class="hidden-sm text"> \', escape=False)\n            response.write(dado.nome)\n            response.write(\'</span> <span class="chevron closed"></span></a>\\n\\t\\t\\t\\t\\t\', escape=False)\n            pass\n        pass\n    query = (dado.id == db.f_submenu.menu_ref)\n    submenu = db(query).select(orderby=db.f_submenu.ordem)\n    response.write(\'\\n\\t\\t\\t\\t<ul>\\n\\t\\t\\t\\t\', escape=False)\n    for sub in submenu:\n        #print sub\n        if (auth.has_membership(sub.nome) or auth.has_membership(\'administrador\')):\n            response.write(\'\\n\\t\\t\\t\\t\\t<li><a class="submenu" href="\', escape=False)\n            response.write(URL(a=\'admanager\', c=sub.controller, f=sub.funcao))\n            response.write(\'"><i class="\', escape=False)\n            response.write(sub.icone)\n            response.write(\'"></i><span class="hidden-sm text"> \', escape=False)\n            response.write(sub.nome)\n            response.write(\'</span></a></li>\\n\\t\\t\\t\\t\\t\', escape=False)\n            pass\n        pass\n    response.write(\'\\n\\t\\t\\t\\t</ul>\\t\\t \\n\\t\\t\\t\', escape=False)\n    pass\nresponse.write(\'\\n\\t</ul>\\n</div>\', escape=False)\nresponse.write(\'\\n\\n\\t\\t\\t\\t<a href="ui-sliders-progress.html#" id="main-menu-min" class="full visible-md visible-lg"><i class="icon-double-angle-left"></i></a>\\n\\t\\t\\t</div>\\n\\t\\t\\t<!-- end: Main Menu -->\\n\\t\\t\\t\\n\\t\\t\\t<!-- start: Content -->\\n\\t\\t\\t<div id="content" class="col-lg-10 col-sm-11 ">\\n\\t\\t\\t\\t\\n\\t\\t\\t<div class="row">\\t\\n\\t\\t\\t\\t<div class="col-lg-12">\\n\\t\\t\\t\\t\\t<ol class="breadcrumb">\\n\\t\\t\\t\\t\\t  \\t<li><a href="ui-sliders-progress.html#">Genius</a></li>\\n\\t\\t\\t\\t\\t\\t<li><a href="ui-sliders-progress.html#">UI Features</a></li>\\n\\t\\t\\t\\t\\t  \\t<li class="active">Sliders & Progress</li>\\n\\t\\t\\t\\t\\t</ol>\\n\\t\\t\\t\\t\\t<div class="box">\\n\\t\\t\\t\\t\\t\\t<div class="box-header">\\n\\t\\t\\t\\t\\t\\t\\t<h2><i class="icon-tasks"></i>\', escape=False)\nresponse.write(response.title or \'\')\nresponse.write(\'</h2>\\n\\t\\t\\t\\t\\t\\t</div>\\n\\t\\t\\t\\t\\t\\t<div class="box-content">\\n\\n\\t\\t\\t\\t\\t\\t<div style="position: fixed; right: 30px; top: 50px; width: 200px">\\n\\t\\t\\t\\t\\t\\t\\t\', escape=False)\nif response.alerta_sucesso != None:\n    response.write(\'\\n\\t <div style="cursor: pointer; display: block;" id="noty_success" class="noty_bar noty_theme_default noty_layout_topLeft noty_success">\\n\\t\\t <div class="noty_message"><span class="noty_text">\', escape=False)\n    response.write(response.alerta_sucesso)\n    response.write(\'</span>\\n\\t\\t </div><button type="button" class="close" data-dismiss="alert">\\xc3\\x97</button>\\n\\t</div>\\n\', escape=False)\n    pass\nresponse.write(\'\\n\\n\', escape=False)\nif response.alerta_erro != None:\n    response.write(\'\\n\\t <div style="cursor: pointer; display: block;" id="noty_error" class="noty_bar noty_theme_default noty_layout_topLeft noty_error">\\n\\t\\t <div class="noty_message"><span class="noty_text">\', escape=False)\n    response.write(response.alerta_erro)\n    response.write(\'</span>\\n\\t\\t </div><button type="button" class="close" data-dismiss="alert">\\xc3\\x97</button>\\n\\t</div>\\n\', escape=False)\n    pass\nresponse.write(\'\\n\\n\', escape=False)\nif session.alerta_sucesso != None:\n    response.write(\'\\n\\t <div style="cursor: pointer; display: block;" id="noty_success" class="noty_bar noty_theme_default noty_layout_topLeft noty_success">\\n\\t\\t <div class="noty_message"><span class="noty_text">\', escape=False)\n    response.write(session.alerta_sucesso)\n    response.write(\'</span>\\n\\t\\t </div><button type="button" class="close" data-dismiss="alert">\\xc3\\x97</button>\\n\\t</div>\\n\\t\', escape=False)\n    session.alerta_sucesso=None\n    response.write(\'\\n\', escape=False)\n    pass\nresponse.write(\'\\n\\n\\n\\n\', escape=False)\nresponse.write(\'\\n\\t\\t\\t\\t\\t\\t</div>\\n\\n\\t\\t\\t\\t\\t\\t\\t\', escape=False)\nresponse.write(\'\\n\\n\', escape=False)\nresponse.write(\'\\n\\t\\t\\t\\t\\t\\t\\t\\t\', escape=False)\nresponse.write(\'\\n\\n\\n<div class="alert alert-info">\\n<button type="button" class="close" data-dismiss="alert">\\xc3\\x97</button>\\n<strong>Dica!</strong> com este registro voc\\xc3\\xaa ir\\xc3\\xa1 fazer autentica\\xc3\\xa7\\xc3\\xa3o do seu ramal, lembre-se do usu\\xc3\\xa1rio e senha   \\n</div>\\n\\n<div class="direita">\\n   <button type="button" class="btn btn-primary" onclick=location.href="lote_fisico_form" >Criar lote</button>\\n      <button type="button" class="btn btn-primary" onclick=location.href="\', escape=False)\nresponse.write(url)\nresponse.write(\'" >Voltar</button>\\n</div><br><br>\\n\\n\\n<div class=\\\'row\\\'>\\n<div class="col-lg-7">\\n\', escape=False)\nresponse.write(form.custom.begin)\nresponse.write(\'\\n<label>Tecnologia:</label>\\n<div>\', escape=False)\nresponse.write(form.custom.widget.tecnologia)\nresponse.write(\'</div>\\n<br>\\n\\n<label>Usu\\xc3\\xa1rio:</label> \\n<div>\', escape=False)\nresponse.write(form.custom.widget.usuario)\nresponse.write(\'</div>\\n<br>\\n\\n<label>Senha:</label> \\n<div>\', escape=False)\nresponse.write(form.custom.widget.secret)\nresponse.write(\'</div>\\n<br>\\n\\n<label>Desabilitar codecs:</label> \\n<div>\', escape=False)\nresponse.write(form.custom.widget.disallow)\nresponse.write(\'</div>\\n<br>\\n\\n<label>Qualify:</label> \\n<div>\', escape=False)\nresponse.write(form.custom.widget.qualify)\nresponse.write(\'</div>\\n<br>\\n\\n<label>Nat:</label> \\n<div>\', escape=False)\nresponse.write(form.custom.widget.nat)\nresponse.write(\'</div>\\n<br>\\n\\n<label>Autentica\\xc3\\xa7\\xc3\\xa3o externa:</label> \\n<div>\', escape=False)\nresponse.write(form.custom.widget.aut_externa)\nresponse.write(\'</div>\\n<br>\\n\\n\\n<br>\\n<button type="submit" class="btn btn-primary">Enviar</button>\\n</div><!--col-lg-7-->\\n\\n<div class="col-lg-3">\\n\\n<label>Type:</label> \\n<div>\', escape=False)\nresponse.write(form.custom.widget.type_f)\nresponse.write(\'</div>\\n<br>\\n\\n<label>Host:</label> \\n<div>\', escape=False)\nresponse.write(form.custom.widget.host_f)\nresponse.write(\'</div>\\n<br>\\n\\n<label>Contexto:</label> \\n<div>\', escape=False)\nresponse.write(form.custom.widget.context)\nresponse.write(\'</div>\\n<br>\\n\\n<label>Habilitar codecs:</label> \\n<div>\', escape=False)\nresponse.write(form.custom.widget.allow)\nresponse.write(\'</div>\\n<br>\\n\\n<label>Extras:</label> \\n<div>\', escape=False)\nresponse.write(form.custom.widget.extras)\nresponse.write(\'</div>\\n<br>\\n\\n\', escape=False)\nresponse.write(form.custom.end)\nresponse.write(\'\\n</div><!--col-lg-3-->\\n\\n</div><!--row-->\\n<br>\\n\\n\\n\', escape=False)\nresponse.write(\'\\n\\t\\t\\t\\t\\t\\t</div>\\t\\n\\t\\t\\t\\t\\t</div><!--/col-->\\n\\t\\t\\t\\t</div><!--/col-->\\n\\t\\t\\t\\t\\n\\t\\t\\t</div><!--/row-->\\n\\t\\t\\t</div><!-- end: Content -->\\n\\t\\t\\t\\t\\n\\t</div><!--/row-->\\t\\t\\t\\n\\t</div><!--/container-->\\n\\t\\n\\t\\n\\t<div class="modal fade" id="myModal">\\n\\t\\t<div class="modal-dialog">\\n\\t\\t\\t<div class="modal-content">\\n\\t\\t\\t\\t<div class="modal-header">\\n\\t\\t\\t\\t\\t<button type="button" class="close" data-dismiss="modal" aria-hidden="true">&times;</button>\\n\\t\\t\\t\\t\\t<h4 class="modal-title">Modal title</h4>\\n\\t\\t\\t\\t</div>\\n\\t\\t\\t\\t<div class="modal-body">\\n\\t\\t\\t\\t\\t<p>Here settings can be configured...</p>\\n\\t\\t\\t\\t</div>\\n\\t\\t\\t\\t<div class="modal-footer">\\n\\t\\t\\t\\t\\t<button type="button" class="btn btn-default" data-dismiss="modal">Close</button>\\n\\t\\t\\t\\t\\t<button type="button" class="btn btn-primary">Save changes</button>\\n\\t\\t\\t\\t</div>\\n\\t\\t\\t</div><!-- /.modal-content -->\\n\\t\\t</div><!-- /.modal-dialog -->\\n\\t</div><!-- /.modal -->\\n\\t\\n\\t<div class="clearfix"></div>\\n\\t\\n\\t<footer>\\n\\t\\t<p>\\n\\t\\t\\t<span style="text-align:left;float:left">&copy; 2014 <a href="http://forip.com.br/" alt="Bootstrap Themes">ForIP.com.br</a></span>\\n\\t\\t\\t<span class="hidden-phone" style="text-align:right;float:right">Powered by: <a href="http://bootstrapmaster.com/" alt="Bootstrap Admin Template">ForIP</a></span>\\n\\t\\t</p>\\n\\n\\t</footer>\\n\\t\\t\\n\\t<!-- start: JavaScript-->\\n\\t<!--[if !IE]>-->\\n\\n\\t\\t\\t<script src="\', escape=False)\nresponse.write(URL(a=\'admanager\', c=\'static\', f=\'js\'))\nresponse.write(\'/jquery-2.0.3.min.js"></script>\\n\\n\\t<!--<![endif]-->\\n\\n\\t<!--[if IE]>\\n\\t\\n\\t\\t<script src="\', escape=False)\nresponse.write(URL(a=\'admanager\', c=\'static\', f=\'js\'))\nresponse.write(\'/jquery-1.10.2.min.js"></script>\\n\\t\\n\\t<![endif]-->\\n\\n\\t<!--[if !IE]>-->\\n\\n\\t\\t<script type="text/javascript">\\n\\t\\t\\twindow.jQuery || document.write("<script src=\\\'\', escape=False)\nresponse.write(URL(a=\'admanager\', c=\'static\', f=\'js\'))\nresponse.write(\'/jquery-2.0.3.min.js\\\'>"+"<"+"/script>");\\n\\t\\t</script>\\n\\n\\t<!--<![endif]-->\\n\\n\\t<!--[if IE]>\\n\\t\\n\\t\\t<script type="text/javascript">\\n\\t \\twindow.jQuery || document.write("<script src=\\\'\', escape=False)\nresponse.write(URL(a=\'admanager\', c=\'static\', f=\'js\'))\nresponse.write(\'/jquery-1.10.2.min.js\\\'>"+"<"+"/script>");\\n\\t\\t</script>\\n\\t\\t\\n\\t<![endif]-->\\n\\t<script src="\', escape=False)\nresponse.write(URL(a=\'admanager\', c=\'static\', f=\'js\'))\nresponse.write(\'/jquery-migrate-1.2.1.min.js"></script>\\n\\t<script src="\', escape=False)\nresponse.write(URL(a=\'admanager\', c=\'static\', f=\'js\'))\nresponse.write(\'/bootstrap.min.js"></script>\\n\\t<!--<script src="\', escape=False)\nresponse.write(URL(a=\'admanager\', c=\'static\', f=\'js\'))\nresponse.write(\'/jquery.js"></script>-->\\t\\n\\t\\n\\t<!-- page scripts -->\\n\\t<script src="\', escape=False)\nresponse.write(URL(a=\'admanager\', c=\'static\', f=\'js\'))\nresponse.write(\'/jquery-ui-1.10.3.custom.min.js"></script>\\n\\t<script src="\', escape=False)\nresponse.write(URL(a=\'admanager\', c=\'static\', f=\'js\'))\nresponse.write(\'/jquery.ui.touch-punch.min.js"></script>\\n\\t<script src="\', escape=False)\nresponse.write(URL(a=\'admanager\', c=\'static\', f=\'js\'))\nresponse.write(\'/jquery.sparkline.min.js"></script>\\n\\t\\n\\t<!-- theme scripts -->\\n\\t<script src="\', escape=False)\nresponse.write(URL(a=\'admanager\', c=\'static\', f=\'js\'))\nresponse.write(\'/custom.min.js"></script>\\n\\t<script src="\', escape=False)\nresponse.write(URL(a=\'admanager\', c=\'static\', f=\'js\'))\nresponse.write(\'/core.min.js"></script>\\n\\t\\n\\t<!-- inline scripts related to this page -->\\n\\t<script src="\', escape=False)\nresponse.write(URL(a=\'admanager\', c=\'static\', f=\'js\'))\nresponse.write(\'/pages/ui-sliders-progress.js"></script>\\n\\t\\n\\t<!-- end: JavaScript-->\\n\\n\', escape=False)\nresponse.write(\'\\n\', escape=False)\nresponse.write(\'\\n\\t\\n</body>\\n</html>\', escape=False)'
p7
sS'snapshot'
p8
(dp9
S'exception'
p10
(dp11
S'__hash__'
p12
S"<method-wrapper '__hash__' of exceptions.NameError object>"
p13
sS'__setattr__'
p14
S"<method-wrapper '__setattr__' of exceptions.NameError object>"
p15
sS'__reduce_ex__'
p16
S'<built-in method __reduce_ex__ of exceptions.NameError object>'
p17
sS'__getslice__'
p18
S"<method-wrapper '__getslice__' of exceptions.NameError object>"
p19
sS'__getitem__'
p20
S"<method-wrapper '__getitem__' of exceptions.NameError object>"
p21
sS'__setstate__'
p22
S'<built-in method __setstate__ of exceptions.NameError object>'
p23
sS'args'
p24
S'("name \'url\' is not defined",)'
p25
sS'__reduce__'
p26
S'<built-in method __reduce__ of exceptions.NameError object>'
p27
sS'__str__'
p28
S"<method-wrapper '__str__' of exceptions.NameError object>"
p29
sS'__format__'
p30
S'<built-in method __format__ of exceptions.NameError object>'
p31
sS'__getattribute__'
p32
S"<method-wrapper '__getattribute__' of exceptions.NameError object>"
p33
sS'__class__'
p34
S"<type 'exceptions.NameError'>"
p35
sS'__unicode__'
p36
S'<built-in method __unicode__ of exceptions.NameError object>'
p37
sS'__delattr__'
p38
S"<method-wrapper '__delattr__' of exceptions.NameError object>"
p39
sS'__subclasshook__'
p40
S'<built-in method __subclasshook__ of type object>'
p41
sS'__repr__'
p42
S"<method-wrapper '__repr__' of exceptions.NameError object>"
p43
sS'__dict__'
p44
S'{}'
p45
sS'__sizeof__'
p46
S'<built-in method __sizeof__ of exceptions.NameError object>'
p47
sS'__doc__'
p48
S"'Name not found globally.'"
p49
sS'__init__'
p50
S"<method-wrapper '__init__' of exceptions.NameError object>"
p51
sS'__new__'
p52
S'<built-in method __new__ of type object>'
p53
ssS'evalue'
p54
S"name 'url' is not defined"
p55
sS'request'
p56
cgluon.html
XML_unpickle
p57
(S's\xe3S\x00\x00<div><table><tr><td style="font-weight:bold;vertical-align:top">ajax</td><td valign="top">:</td><td><div>False</div></td></tr><tr><td style="font-weight:bold;vertical-align:top">application</td><td valign="top">:</td><td><div>admanager</div></td></tr><tr><td style="font-weight:bold;vertical-align:top">args</td><td valign="top">:</td><td><div><table></table></div></td></tr><tr><td style="font-weight:bold;vertical-align:top">body</td><td valign="top">:</td><td><div>&lt;cStringIO.StringO object at 0x7f08117ea6c0&gt;</div></td></tr><tr><td style="font-weight:bold;vertical-align:top">cid</td><td valign="top">:</td><td><div>None</div></td></tr><tr><td style="font-weight:bold;vertical-align:top">client</td><td valign="top">:</td><td><div>127.0.0.1</div></td></tr><tr><td style="font-weight:bold;vertical-align:top">controller</td><td valign="top">:</td><td><div>ramais</div></td></tr><tr><td style="font-weight:bold;vertical-align:top">cookies</td><td valign="top">:</td><td><div><table><tr><td style="font-weight:bold;vertical-align:top">SessionId</td><td valign="top">:</td><td><div>59615b62bcbba6c5<table><tr><td style="font-weight:bold;vertical-align:top">comment</td><td valign="top">:</td><td><div></div></td></tr><tr><td style="font-weight:bold;vertical-align:top">domain</td><td valign="top">:</td><td><div></div></td></tr><tr><td style="font-weight:bold;vertical-align:top">expires</td><td valign="top">:</td><td><div></div></td></tr><tr><td style="font-weight:bold;vertical-align:top">httponly</td><td valign="top">:</td><td><div></div></td></tr><tr><td style="font-weight:bold;vertical-align:top">max-age</td><td valign="top">:</td><td><div></div></td></tr><tr><td style="font-weight:bold;vertical-align:top">path</td><td valign="top">:</td><td><div></div></td></tr><tr><td style="font-weight:bold;vertical-align:top">secure</td><td valign="top">:</td><td><div></div></td></tr><tr><td style="font-weight:bold;vertical-align:top">version</td><td valign="top">:</td><td><div></div></td></tr></table></div></td></tr><tr><td style="font-weight:bold;vertical-align:top">session_id_admanager</td><td valign="top">:</td><td><div>127.0.0.1-fe3a16e3-42e3-456d-bd1b-75a619842a6e<table><tr><td style="font-weight:bold;vertical-align:top">comment</td><td valign="top">:</td><td><div></div></td></tr><tr><td style="font-weight:bold;vertical-align:top">domain</td><td valign="top">:</td><td><div></div></td></tr><tr><td style="font-weight:bold;vertical-align:top">expires</td><td valign="top">:</td><td><div></div></td></tr><tr><td style="font-weight:bold;vertical-align:top">httponly</td><td valign="top">:</td><td><div></div></td></tr><tr><td style="font-weight:bold;vertical-align:top">max-age</td><td valign="top">:</td><td><div></div></td></tr><tr><td style="font-weight:bold;vertical-align:top">path</td><td valign="top">:</td><td><div></div></td></tr><tr><td style="font-weight:bold;vertical-align:top">secure</td><td valign="top">:</td><td><div></div></td></tr><tr><td style="font-weight:bold;vertical-align:top">version</td><td valign="top">:</td><td><div></div></td></tr></table></div></td></tr><tr><td style="font-weight:bold;vertical-align:top">session_id_admin</td><td valign="top">:</td><td><div>127.0.0.1-664cd65c-1f0d-4328-b54c-4339a6e2377c<table><tr><td style="font-weight:bold;vertical-align:top">comment</td><td valign="top">:</td><td><div></div></td></tr><tr><td style="font-weight:bold;vertical-align:top">domain</td><td valign="top">:</td><td><div></div></td></tr><tr><td style="font-weight:bold;vertical-align:top">expires</td><td valign="top">:</td><td><div></div></td></tr><tr><td style="font-weight:bold;vertical-align:top">httponly</td><td valign="top">:</td><td><div></div></td></tr><tr><td style="font-weight:bold;vertical-align:top">max-age</td><td valign="top">:</td><td><div></div></td></tr><tr><td style="font-weight:bold;vertical-align:top">path</td><td valign="top">:</td><td><div></div></td></tr><tr><td style="font-weight:bold;vertical-align:top">secure</td><td valign="top">:</td><td><div></div></td></tr><tr><td style="font-weight:bold;vertical-align:top">version</td><td valign="top">:</td><td><div></div></td></tr></table></div></td></tr></table></div></td></tr><tr><td style="font-weight:bold;vertical-align:top">env</td><td valign="top">:</td><td><div><table><tr><td style="font-weight:bold;vertical-align:top">app_folders</td><td valign="top">:</td><td><div>set([&#x27;/home/fernando/web2py/applications/admin/&#x27;, &#x27;/home/fernando/web2py/applications/admanager/&#x27;])</div></td></tr><tr><td style="font-weight:bold;vertical-align:top">applications_parent</td><td valign="top">:</td><td><div>/home/fernando/web2py</div></td></tr><tr><td style="font-weight:bold;vertical-align:top">cmd_args</td><td valign="top">:</td><td><div><table></table></div></td></tr><tr><td style="font-weight:bold;vertical-align:top">cmd_options</td><td valign="top">:</td><td><div>&lt;Values at 0x7f083493fa70: {&#x27;verbose&#x27;: False, &#x27;ip&#x27;: &#x27;127.0.0.1&#x27;, &#x27;with_scheduler&#x27;: False, &#x27;ips&#x27;: [&#x27;127.0.1.1&#x27;], &#x27;shutdown_timeout&#x27;: 5, &#x27;taskbar&#x27;: False, &#x27;with_coverage&#x27;: False, &#x27;port&#x27;: 8000, &#x27;maxthreads&#x27;: None, &#x27;softcron&#x27;: False, &#x27;server_name&#x27;: &#x27;fernando-pc&#x27;, &#x27;bpython&#x27;: False, &#x27;nogui&#x27;: False, &#x27;pid_filename&#x27;: &#x27;httpserver.pid&#x27;, &#x27;extcron&#x27;: False, &#x27;runcron&#x27;: False, &#x27;run_system_tests&#x27;: False, &#x27;test&#x27;: None, &#x27;folder&#x27;: &#x27;/home/fernando/web2py&#x27;, &#x27;config&#x27;: &#x27;&#x27;, &#x27;minthreads&#x27;: None, &#x27;winservice&#x27;: &#x27;&#x27;, &#x27;shell&#x27;: None, &#x27;run&#x27;: &#x27;&#x27;, &#x27;log_filename&#x27;: &#x27;httpserver.log&#x27;, &#x27;debuglevel&#x27;: 30, &#x27;args&#x27;: [&#x27;&#x27;], &#x27;socket_timeout&#x27;: 5, &#x27;ssl_ca_certificate&#x27;: None, &#x27;scheduler&#x27;: None, &#x27;profiler_filename&#x27;: None, &#x27;ssl_private_key&#x27;: &#x27;&#x27;, &#x27;scheduler_groups&#x27;: None, &#x27;password&#x27;: &#x27;123456&#x27;, &#x27;request_queue_size&#x27;: 5, &#x27;ssl_certificate&#x27;: &#x27;&#x27;, &#x27;cronjob&#x27;: False, &#x27;numthreads&#x27;: None, &#x27;quiet&#x27;: False, &#x27;interfaces&#x27;: None, &#x27;import_models&#x27;: False, &#x27;timeout&#x27;: 10, &#x27;plain&#x27;: False, &#x27;nobanner&#x27;: False}&gt;</div></td></tr><tr><td style="font-weight:bold;vertical-align:top">db_sessions</td><td valign="top">:</td><td><div>set([])</div></td></tr><tr><td style="font-weight:bold;vertical-align:top">debugging</td><td valign="top">:</td><td><div>False</div></td></tr><tr><td style="font-weight:bold;vertical-align:top">gluon_parent</td><td valign="top">:</td><td><div>/home/fernando/web2py</div></td></tr><tr><td style="font-weight:bold;vertical-align:top">http_accept</td><td valign="top">:</td><td><div>text/html,application/xhtml+xml,application/xml;q=0.9,image/webp,*/*;q=0.8</div></td></tr><tr><td style="font-weight:bold;vertical-align:top">http_accept_encoding</td><td valign="top">:</td><td><div>gzip,deflate,sdch</div></td></tr><tr><td style="font-weight:bold;vertical-align:top">http_accept_language</td><td valign="top">:</td><td><div>pt-BR,pt;q=0.8,en-US;q=0.6,en;q=0.4</div></td></tr><tr><td style="font-weight:bold;vertical-align:top">http_cache_control</td><td valign="top">:</td><td><div>max-age=0</div></td></tr><tr><td style="font-weight:bold;vertical-align:top">http_connection</td><td valign="top">:</td><td><div>keep-alive</div></td></tr><tr><td style="font-weight:bold;vertical-align:top">http_cookie</td><td valign="top">:</td><td><div>SessionId=&quot;59615b62bcbba6c5&quot;; session_id_admin=127.0.0.1-664cd65c-1f0d-4328-b54c-4339a6e2377c; session_id_admanager=127.0.0.1-fe3a16e3-42e3-456d-bd1b-75a619842a6e</div></td></tr><tr><td style="font-weight:bold;vertical-align:top">http_host</td><td valign="top">:</td><td><div>127.0.0.1:8000</div></td></tr><tr><td style="font-weight:bold;vertical-align:top">http_user_agent</td><td valign="top">:</td><td><div>Mozilla/5.0 (X11; Linux x86_64) AppleWebKit/537.36 (KHTML, like Gecko) Chrome/35.0.1916.114 Safari/537.36</div></td></tr><tr><td style="font-weight:bold;vertical-align:top">is_jython</td><td valign="top">:</td><td><div>False</div></td></tr><tr><td style="font-weight:bold;vertical-align:top">is_pypy</td><td valign="top">:</td><td><div>False</div></td></tr><tr><td style="font-weight:bold;vertical-align:top">local_hosts</td><td valign="top">:</td><td><div><table><tr><td><div>::1</div></td></tr><tr><td><div>127.0.1.1</div></td></tr><tr><td><div>fernando-pc</div></td></tr><tr><td><div>::ffff:127.0.0.1</div></td></tr><tr><td><div>127.0.0.1</div></td></tr></table></div></td></tr><tr><td style="font-weight:bold;vertical-align:top">path_info</td><td valign="top">:</td><td><div>/admanager/ramais/fisico_sip_iax_form</div></td></tr><tr><td style="font-weight:bold;vertical-align:top">query_string</td><td valign="top">:</td><td><div></div></td></tr><tr><td style="font-weight:bold;vertical-align:top">remote_addr</td><td valign="top">:</td><td><div>127.0.0.1</div></td></tr><tr><td style="font-weight:bold;vertical-align:top">remote_port</td><td valign="top">:</td><td><div>57647</div></td></tr><tr><td style="font-weight:bold;vertical-align:top">request_method</td><td valign="top">:</td><td><div>GET</div></td></tr><tr><td style="font-weight:bold;vertical-align:top">request_uri</td><td valign="top">:</td><td><div>/admanager/ramais/fisico_sip_iax_form</div></td></tr><tr><td style="font-weight:bold;vertical-align:top">script_name</td><td valign="top">:</td><td><div></div></td></tr><tr><td style="font-weight:bold;vertical-align:top">server_name</td><td valign="top">:</td><td><div>fernando-pc</div></td></tr><tr><td style="font-weight:bold;vertical-align:top">server_port</td><td valign="top">:</td><td><div>8000</div></td></tr><tr><td style="font-weight:bold;vertical-align:top">server_protocol</td><td valign="top">:</td><td><div>HTTP/1.1</div></td></tr><tr><td style="font-weight:bold;vertical-align:top">server_software</td><td valign="top">:</td><td><div>Rocket 1.2.6</div></td></tr><tr><td style="font-weight:bold;vertical-align:top">web2py_original_uri</td><td valign="top">:</td><td><div>/admanager/ramais/fisico_sip_iax_form</div></td></tr><tr><td style="font-weight:bold;vertical-align:top">web2py_path</td><td valign="top">:</td><td><div>/home/fernando/web2py</div></td></tr><tr><td style="font-weight:bold;vertical-align:top">web2py_version</td><td valign="top">:</td><td><div>2.5.1-stable+timestamp.2013.06.06.15.39.19</div></td></tr><tr><td style="font-weight:bold;vertical-align:top">wsgi_errors</td><td valign="top">:</td><td><div>&lt;open file &#x27;&lt;stderr&gt;&#x27;, mode &#x27;w&#x27; at 0x7f0838cad1e0&gt;</div></td></tr><tr><td style="font-weight:bold;vertical-align:top">wsgi_file_wrapper</td><td valign="top">:</td><td><div>&lt;class wsgiref.util.FileWrapper at 0x7f08349bc120&gt;</div></td></tr><tr><td style="font-weight:bold;vertical-align:top">wsgi_input</td><td valign="top">:</td><td><div>&lt;socket._fileobject object at 0x7f08300506d0&gt;</div></td></tr><tr><td style="font-weight:bold;vertical-align:top">wsgi_multiprocess</td><td valign="top">:</td><td><div>False</div></td></tr><tr><td style="font-weight:bold;vertical-align:top">wsgi_multithread</td><td valign="top">:</td><td><div>True</div></td></tr><tr><td style="font-weight:bold;vertical-align:top">wsgi_run_once</td><td valign="top">:</td><td><div>False</div></td></tr><tr><td style="font-weight:bold;vertical-align:top">wsgi_url_scheme</td><td valign="top">:</td><td><div>http</div></td></tr><tr><td style="font-weight:bold;vertical-align:top">wsgi_version</td><td valign="top">:</td><td><div><table><tr><td><div>1</div></td></tr><tr><td><div>0</div></td></tr></table></div></td></tr></table></div></td></tr><tr><td style="font-weight:bold;vertical-align:top">extension</td><td valign="top">:</td><td><div>html</div></td></tr><tr><td style="font-weight:bold;vertical-align:top">folder</td><td valign="top">:</td><td><div>/home/fernando/web2py/applications/admanager/</div></td></tr><tr><td style="font-weight:bold;vertical-align:top">function</td><td valign="top">:</td><td><div>fisico_sip_iax_form</div></td></tr><tr><td style="font-weight:bold;vertical-align:top">get_vars</td><td valign="top">:</td><td><div><table></table></div></td></tr><tr><td style="font-weight:bold;vertical-align:top">global_settings</td><td valign="top">:</td><td><div><table><tr><td style="font-weight:bold;vertical-align:top">app_folders</td><td valign="top">:</td><td><div>set([&#x27;/home/fernando/web2py/applications/admin/&#x27;, &#x27;/home/fernando/web2py/applications/admanager/&#x27;])</div></td></tr><tr><td style="font-weight:bold;vertical-align:top">applications_parent</td><td valign="top">:</td><td><div>/home/fernando/web2py</div></td></tr><tr><td style="font-weight:bold;vertical-align:top">cmd_args</td><td valign="top">:</td><td><div><table></table></div></td></tr><tr><td style="font-weight:bold;vertical-align:top">cmd_options</td><td valign="top">:</td><td><div>&lt;Values at 0x7f083493fa70: {&#x27;verbose&#x27;: False, &#x27;ip&#x27;: &#x27;127.0.0.1&#x27;, &#x27;with_scheduler&#x27;: False, &#x27;ips&#x27;: [&#x27;127.0.1.1&#x27;], &#x27;shutdown_timeout&#x27;: 5, &#x27;taskbar&#x27;: False, &#x27;with_coverage&#x27;: False, &#x27;port&#x27;: 8000, &#x27;maxthreads&#x27;: None, &#x27;softcron&#x27;: False, &#x27;server_name&#x27;: &#x27;fernando-pc&#x27;, &#x27;bpython&#x27;: False, &#x27;nogui&#x27;: False, &#x27;pid_filename&#x27;: &#x27;httpserver.pid&#x27;, &#x27;extcron&#x27;: False, &#x27;runcron&#x27;: False, &#x27;run_system_tests&#x27;: False, &#x27;test&#x27;: None, &#x27;folder&#x27;: &#x27;/home/fernando/web2py&#x27;, &#x27;config&#x27;: &#x27;&#x27;, &#x27;minthreads&#x27;: None, &#x27;winservice&#x27;: &#x27;&#x27;, &#x27;shell&#x27;: None, &#x27;run&#x27;: &#x27;&#x27;, &#x27;log_filename&#x27;: &#x27;httpserver.log&#x27;, &#x27;debuglevel&#x27;: 30, &#x27;args&#x27;: [&#x27;&#x27;], &#x27;socket_timeout&#x27;: 5, &#x27;ssl_ca_certificate&#x27;: None, &#x27;scheduler&#x27;: None, &#x27;profiler_filename&#x27;: None, &#x27;ssl_private_key&#x27;: &#x27;&#x27;, &#x27;scheduler_groups&#x27;: None, &#x27;password&#x27;: &#x27;123456&#x27;, &#x27;request_queue_size&#x27;: 5, &#x27;ssl_certificate&#x27;: &#x27;&#x27;, &#x27;cronjob&#x27;: False, &#x27;numthreads&#x27;: None, &#x27;quiet&#x27;: False, &#x27;interfaces&#x27;: None, &#x27;import_models&#x27;: False, &#x27;timeout&#x27;: 10, &#x27;plain&#x27;: False, &#x27;nobanner&#x27;: False}&gt;</div></td></tr><tr><td style="font-weight:bold;vertical-align:top">db_sessions</td><td valign="top">:</td><td><div>set([])</div></td></tr><tr><td style="font-weight:bold;vertical-align:top">debugging</td><td valign="top">:</td><td><div>False</div></td></tr><tr><td style="font-weight:bold;vertical-align:top">gluon_parent</td><td valign="top">:</td><td><div>/home/fernando/web2py</div></td></tr><tr><td style="font-weight:bold;vertical-align:top">is_jython</td><td valign="top">:</td><td><div>False</div></td></tr><tr><td style="font-weight:bold;vertical-align:top">is_pypy</td><td valign="top">:</td><td><div>False</div></td></tr><tr><td style="font-weight:bold;vertical-align:top">local_hosts</td><td valign="top">:</td><td><div><table><tr><td><div>::1</div></td></tr><tr><td><div>127.0.1.1</div></td></tr><tr><td><div>fernando-pc</div></td></tr><tr><td><div>::ffff:127.0.0.1</div></td></tr><tr><td><div>127.0.0.1</div></td></tr></table></div></td></tr><tr><td style="font-weight:bold;vertical-align:top">web2py_version</td><td valign="top">:</td><td><div>2.5.1-stable+timestamp.2013.06.06.15.39.19</div></td></tr></table></div></td></tr><tr><td style="font-weight:bold;vertical-align:top">is_https</td><td valign="top">:</td><td><div>False</div></td></tr><tr><td style="font-weight:bold;vertical-align:top">is_local</td><td valign="top">:</td><td><div>True</div></td></tr><tr><td style="font-weight:bold;vertical-align:top">is_restful</td><td valign="top">:</td><td><div>False</div></td></tr><tr><td style="font-weight:bold;vertical-align:top">now</td><td valign="top">:</td><td><div>datetime.datetime(2014, 6, 20, 15, 42, 30, 133414)</div></td></tr><tr><td style="font-weight:bold;vertical-align:top">post_vars</td><td valign="top">:</td><td><div><table></table></div></td></tr><tr><td style="font-weight:bold;vertical-align:top">url</td><td valign="top">:</td><td><div>/admanager/ramais/fisico_sip_iax_form</div></td></tr><tr><td style="font-weight:bold;vertical-align:top">utcnow</td><td valign="top">:</td><td><div>datetime.datetime(2014, 6, 20, 18, 42, 30, 133440)</div></td></tr><tr><td style="font-weight:bold;vertical-align:top">uuid</td><td valign="top">:</td><td><div>admanager/127.0.0.1.2014-06-20.15-42-30.fe9ca86a-14a5-4c68-8e18-10c04a1f3c53</div></td></tr><tr><td style="font-weight:bold;vertical-align:top">vars</td><td valign="top">:</td><td><div><table></table></div></td></tr><tr><td style="font-weight:bold;vertical-align:top">wsgi</td><td valign="top">:</td><td><div><table><tr><td style="font-weight:bold;vertical-align:top">environ</td><td valign="top">:</td><td><div><table><tr><td style="font-weight:bold;vertical-align:top">HTTP_ACCEPT</td><td valign="top">:</td><td><div>text/html,application/xhtml+xml,application/xml;q=0.9,image/webp,*/*;q=0.8</div></td></tr><tr><td style="font-weight:bold;vertical-align:top">HTTP_ACCEPT_ENCODING</td><td valign="top">:</td><td><div>gzip,deflate,sdch</div></td></tr><tr><td style="font-weight:bold;vertical-align:top">HTTP_ACCEPT_LANGUAGE</td><td valign="top">:</td><td><div>pt-BR,pt;q=0.8,en-US;q=0.6,en;q=0.4</div></td></tr><tr><td style="font-weight:bold;vertical-align:top">HTTP_CACHE_CONTROL</td><td valign="top">:</td><td><div>max-age=0</div></td></tr><tr><td style="font-weight:bold;vertical-align:top">HTTP_CONNECTION</td><td valign="top">:</td><td><div>keep-alive</div></td></tr><tr><td style="font-weight:bold;vertical-align:top">HTTP_COOKIE</td><td valign="top">:</td><td><div>SessionId=&quot;59615b62bcbba6c5&quot;; session_id_admin=127.0.0.1-664cd65c-1f0d-4328-b54c-4339a6e2377c; session_id_admanager=127.0.0.1-fe3a16e3-42e3-456d-bd1b-75a619842a6e</div></td></tr><tr><td style="font-weight:bold;vertical-align:top">HTTP_HOST</td><td valign="top">:</td><td><div>127.0.0.1:8000</div></td></tr><tr><td style="font-weight:bold;vertical-align:top">HTTP_USER_AGENT</td><td valign="top">:</td><td><div>Mozilla/5.0 (X11; Linux x86_64) AppleWebKit/537.36 (KHTML, like Gecko) Chrome/35.0.1916.114 Safari/537.36</div></td></tr><tr><td style="font-weight:bold;vertical-align:top">PATH_INFO</td><td valign="top">:</td><td><div>/admanager/ramais/fisico_sip_iax_form</div></td></tr><tr><td style="font-weight:bold;vertical-align:top">QUERY_STRING</td><td valign="top">:</td><td><div></div></td></tr><tr><td style="font-weight:bold;vertical-align:top">REMOTE_ADDR</td><td valign="top">:</td><td><div>127.0.0.1</div></td></tr><tr><td style="font-weight:bold;vertical-align:top">REMOTE_PORT</td><td valign="top">:</td><td><div>57647</div></td></tr><tr><td style="font-weight:bold;vertical-align:top">REQUEST_METHOD</td><td valign="top">:</td><td><div>GET</div></td></tr><tr><td style="font-weight:bold;vertical-align:top">REQUEST_URI</td><td valign="top">:</td><td><div>/admanager/ramais/fisico_sip_iax_form</div></td></tr><tr><td style="font-weight:bold;vertical-align:top">SCRIPT_NAME</td><td valign="top">:</td><td><div></div></td></tr><tr><td style="font-weight:bold;vertical-align:top">SERVER_NAME</td><td valign="top">:</td><td><div>fernando-pc</div></td></tr><tr><td style="font-weight:bold;vertical-align:top">SERVER_PORT</td><td valign="top">:</td><td><div>8000</div></td></tr><tr><td style="font-weight:bold;vertical-align:top">SERVER_PROTOCOL</td><td valign="top">:</td><td><div>HTTP/1.1</div></td></tr><tr><td style="font-weight:bold;vertical-align:top">SERVER_SOFTWARE</td><td valign="top">:</td><td><div>Rocket 1.2.6</div></td></tr><tr><td style="font-weight:bold;vertical-align:top">WEB2PY_ORIGINAL_URI</td><td valign="top">:</td><td><div>/admanager/ramais/fisico_sip_iax_form</div></td></tr><tr><td style="font-weight:bold;vertical-align:top">wsgi.errors</td><td valign="top">:</td><td><div>&lt;open file &#x27;&lt;stderr&gt;&#x27;, mode &#x27;w&#x27; at 0x7f0838cad1e0&gt;</div></td></tr><tr><td style="font-weight:bold;vertical-align:top">wsgi.file_wrapper</td><td valign="top">:</td><td><div>&lt;class wsgiref.util.FileWrapper at 0x7f08349bc120&gt;</div></td></tr><tr><td style="font-weight:bold;vertical-align:top">wsgi.input</td><td valign="top">:</td><td><div>&lt;cStringIO.StringO object at 0x7f08117ea6c0&gt;</div></td></tr><tr><td style="font-weight:bold;vertical-align:top">wsgi.multiprocess</td><td valign="top">:</td><td><div>False</div></td></tr><tr><td style="font-weight:bold;vertical-align:top">wsgi.multithread</td><td valign="top">:</td><td><div>True</div></td></tr><tr><td style="font-weight:bold;vertical-align:top">wsgi.run_once</td><td valign="top">:</td><td><div>False</div></td></tr><tr><td style="font-weight:bold;vertical-align:top">wsgi.url_scheme</td><td valign="top">:</td><td><div>http</div></td></tr><tr><td style="font-weight:bold;vertical-align:top">wsgi.version</td><td valign="top">:</td><td><div>1</div></td></tr></table></div></td></tr></table></div></td></tr></table></div>'
tRp58
sS'frames'
p59
(lp60
(dp61
S'file'
p62
S'/home/fernando/web2py/gluon/restricted.py'
p63
sS'dump'
p64
(dp65
S'environment'
p66
S"{'A': <class 'gluon.html.A'>, 'ANY_OF': <class 'gluon.validators.ANY_OF'>, 'Auth': <class 'gluon.tools.Auth'>, 'B': <class 'gluon.html.B'>, 'BEAUTIFY': <class 'gluon.html.BEAUTIFY'>, 'BODY': <class 'gluon.html.BODY'>, 'BR': <class 'gluon.html.BR'>, 'BUTTON': <class 'gluon.html.BUTTON'>, 'CAT': <class 'gluon.html.CAT'>, 'CENTER': <class 'gluon.html.CENTER'>, ...}"
p67
sS'ccode'
p68
S'<code object <module> at 0x7f08116ebcb0, file "/...dmanager/views/ramais/form_sip_iax.html", line 1>'
p69
ssS'lnum'
p70
I212
sS'lines'
p71
(dp72
I207
S'    try:'
p73
sI208
S'        if isinstance(code, types.CodeType):'
p74
sI209
S'            ccode = code'
p75
sI210
S'        else:'
p76
sI211
S'            ccode = compile2(code, layer)'
p77
sI212
S'        exec ccode in environment'
p78
sI213
S'    except HTTP:'
p79
sI214
S'        raise'
p80
sI215
S'    except RestrictedError:'
p81
sI216
S'        # do not encapsulate (obfuscate) the original RestrictedError'
p82
ssS'call'
p83
S'(code=\'response.write(\\\'<!DOCTYPE html>\\\\n<html lang="pt-...nse.write(\\\'\\\\n\\\\t\\\\n</body>\\\\n</html>\\\', escape=False)\', environment={\'A\': <class \'gluon.html.A\'>, \'ANY_OF\': <class \'gluon.validators.ANY_OF\'>, \'Auth\': <class \'gluon.tools.Auth\'>, \'B\': <class \'gluon.html.B\'>, \'BEAUTIFY\': <class \'gluon.html.BEAUTIFY\'>, \'BODY\': <class \'gluon.html.BODY\'>, \'BR\': <class \'gluon.html.BR\'>, \'BUTTON\': <class \'gluon.html.BUTTON\'>, \'CAT\': <class \'gluon.html.CAT\'>, \'CENTER\': <class \'gluon.html.CENTER\'>, ...}, layer=\'/home/fernando/web2py/applications/admanager/views/ramais/form_sip_iax.html\')'
p84
sS'func'
p85
S'restricted'
p86
sa(dp87
g62
S'/home/fernando/web2py/applications/admanager/views/ramais/form_sip_iax.html'
p88
sg64
(dp89
sg70
I113
sg71
(dp90
I104
S'    response.write(\'</span>\\n\\t\\t </div><button type="button" class="close" data-dismiss="alert">\\xc3\\x97</button>\\n\\t</div>\\n\\t\', escape=False)'
p91
sI105
S'    session.alerta_sucesso=None'
p92
sI106
S"    response.write('\\n', escape=False)"
p93
sI107
S'    pass'
p94
sI108
S"response.write('\\n\\n\\n\\n', escape=False)"
p95
sI109
S"response.write('\\n\\t\\t\\t\\t\\t\\t</div>\\n\\n\\t\\t\\t\\t\\t\\t\\t', escape=False)"
p96
sI110
S"response.write('\\n\\n', escape=False)"
p97
sI111
S"response.write('\\n\\t\\t\\t\\t\\t\\t\\t\\t', escape=False)"
p98
sI112
S'response.write(\'\\n\\n\\n<div class="alert alert-info">\\n<button type="button" class="close" data-dismiss="alert">\\xc3\\x97</button>\\n<strong>Dica!</strong> com este registro voc\\xc3\\xaa ir\\xc3\\xa1 fazer autentica\\xc3\\xa7\\xc3\\xa3o do seu ramal, lembre-se do usu\\xc3\\xa1rio e senha   \\n</div>\\n\\n<div class="direita">\\n   <button type="button" class="btn btn-primary" onclick=location.href="lote_fisico_form" >Criar lote</button>\\n      <button type="button" class="btn btn-primary" onclick=location.href="\', escape=False)'
p99
sI113
S'response.write(url)'
p100
sI114
S'response.write(\'" >Voltar</button>\\n</div><br><br>\\n\\n\\n<div class=\\\'row\\\'>\\n<div class="col-lg-7">\\n\', escape=False)'
p101
sI115
S'response.write(form.custom.begin)'
p102
sI116
S"response.write('\\n<label>Tecnologia:</label>\\n<div>', escape=False)"
p103
sI117
S'response.write(form.custom.widget.tecnologia)'
p104
sI118
S"response.write('</div>\\n<br>\\n\\n<label>Usu\\xc3\\xa1rio:</label> \\n<div>', escape=False)"
p105
sI119
S'response.write(form.custom.widget.usuario)'
p106
sI120
S"response.write('</div>\\n<br>\\n\\n<label>Senha:</label> \\n<div>', escape=False)"
p107
sI121
S'response.write(form.custom.widget.secret)'
p108
sI122
S"response.write('</div>\\n<br>\\n\\n<label>Desabilitar codecs:</label> \\n<div>', escape=False)"
p109
sI123
S'response.write(form.custom.widget.disallow)'
p110
ssg83
S'()'
p111
sg85
S'<module>'
p112
sasS'pyver'
p113
S'Python 2.7.6: /usr/bin/python (prefix: /usr)'
p114
sS'session'
p115
g57
(S's\\\x08\x00\x00<div><table><tr><td style="font-weight:bold;vertical-align:top">auth</td><td valign="top">:</td><td><div><table><tr><td style="font-weight:bold;vertical-align:top">expiration</td><td valign="top">:</td><td><div>3600</div></td></tr><tr><td style="font-weight:bold;vertical-align:top">hmac_key</td><td valign="top">:</td><td><div>9faf29fb-6da1-43d6-bfb3-5cf82163e268</div></td></tr><tr><td style="font-weight:bold;vertical-align:top">last_visit</td><td valign="top">:</td><td><div>datetime.datetime(2014, 6, 20, 15, 37, 22, 507713)</div></td></tr><tr><td style="font-weight:bold;vertical-align:top">remember</td><td valign="top">:</td><td><div>False</div></td></tr><tr><td style="font-weight:bold;vertical-align:top">user</td><td valign="top">:</td><td><div><table><tr><td style="font-weight:bold;vertical-align:top">email</td><td valign="top">:</td><td><div>root@forip.com.br</div></td></tr><tr><td style="font-weight:bold;vertical-align:top">first_name</td><td valign="top">:</td><td><div>root</div></td></tr><tr><td style="font-weight:bold;vertical-align:top">id</td><td valign="top">:</td><td><div>1L</div></td></tr><tr><td style="font-weight:bold;vertical-align:top">last_name</td><td valign="top">:</td><td><div>root</div></td></tr><tr><td style="font-weight:bold;vertical-align:top">ramal</td><td valign="top">:</td><td><div>0000</div></td></tr><tr><td style="font-weight:bold;vertical-align:top">registration_id</td><td valign="top">:</td><td><div></div></td></tr><tr><td style="font-weight:bold;vertical-align:top">registration_key</td><td valign="top">:</td><td><div></div></td></tr><tr><td style="font-weight:bold;vertical-align:top">reset_password_key</td><td valign="top">:</td><td><div></div></td></tr></table></div></td></tr><tr><td style="font-weight:bold;vertical-align:top">user_groups</td><td valign="top">:</td><td><div><table><tr><td style="font-weight:bold;vertical-align:top">1</td><td valign="top">:</td><td><div>administrador</div></td></tr></table></div></td></tr></table></div></td></tr><tr><td style="font-weight:bold;vertical-align:top">flash</td><td valign="top">:</td><td><div>None</div></td></tr></table></div>'
tRp116
sS'etype'
p117
S"<type 'exceptions.NameError'>"
p118
sS'date'
p119
S'Fri Jun 20 15:42:30 2014'
p120
sS'response'
p121
g57
(S's\x03\x13\x00\x00<div><table><tr><td style="font-weight:bold;vertical-align:top">body</td><td valign="top">:</td><td><div>&lt;cStringIO.StringO object at 0x7f08117261b8&gt;</div></td></tr><tr><td style="font-weight:bold;vertical-align:top">cookies</td><td valign="top">:</td><td><div><table><tr><td style="font-weight:bold;vertical-align:top">session_id_admanager</td><td valign="top">:</td><td><div>127.0.0.1-fe3a16e3-42e3-456d-bd1b-75a619842a6e<table><tr><td style="font-weight:bold;vertical-align:top">comment</td><td valign="top">:</td><td><div></div></td></tr><tr><td style="font-weight:bold;vertical-align:top">domain</td><td valign="top">:</td><td><div></div></td></tr><tr><td style="font-weight:bold;vertical-align:top">expires</td><td valign="top">:</td><td><div></div></td></tr><tr><td style="font-weight:bold;vertical-align:top">httponly</td><td valign="top">:</td><td><div></div></td></tr><tr><td style="font-weight:bold;vertical-align:top">max-age</td><td valign="top">:</td><td><div></div></td></tr><tr><td style="font-weight:bold;vertical-align:top">path</td><td valign="top">:</td><td><div>/</div></td></tr><tr><td style="font-weight:bold;vertical-align:top">secure</td><td valign="top">:</td><td><div></div></td></tr><tr><td style="font-weight:bold;vertical-align:top">version</td><td valign="top">:</td><td><div></div></td></tr></table></div></td></tr></table></div></td></tr><tr><td style="font-weight:bold;vertical-align:top">delimiters</td><td valign="top">:</td><td><div><table><tr><td><div>{{</div></td></tr><tr><td><div>}}</div></td></tr></table></div></td></tr><tr><td style="font-weight:bold;vertical-align:top">files</td><td valign="top">:</td><td><div><table></table></div></td></tr><tr><td style="font-weight:bold;vertical-align:top">flash</td><td valign="top">:</td><td><div></div></td></tr><tr><td style="font-weight:bold;vertical-align:top">generic_patterns</td><td valign="top">:</td><td><div><table><tr><td><div>*</div></td></tr></table></div></td></tr><tr><td style="font-weight:bold;vertical-align:top">headers</td><td valign="top">:</td><td><div><table><tr><td style="font-weight:bold;vertical-align:top">X-Powered-By</td><td valign="top">:</td><td><div>web2py</div></td></tr></table></div></td></tr><tr><td style="font-weight:bold;vertical-align:top">menu</td><td valign="top">:</td><td><div><table></table></div></td></tr><tr><td style="font-weight:bold;vertical-align:top">meta</td><td valign="top">:</td><td><div><table><tr><td style="font-weight:bold;vertical-align:top">keywords</td><td valign="top">:</td><td><div>chave, outra, e outra</div></td></tr></table></div></td></tr><tr><td style="font-weight:bold;vertical-align:top">models_to_run</td><td valign="top">:</td><td><div><table><tr><td><div>^\\w+\\.py$</div></td></tr><tr><td><div>^ramais/\\w+\\.py$</div></td></tr><tr><td><div>^ramais/fisico_sip_iax_form/\\w+\\.py$</div></td></tr></table></div></td></tr><tr><td style="font-weight:bold;vertical-align:top">postprocessing</td><td valign="top">:</td><td><div><table></table></div></td></tr><tr><td style="font-weight:bold;vertical-align:top">session_cookie_expires</td><td valign="top">:</td><td><div>None</div></td></tr><tr><td style="font-weight:bold;vertical-align:top">session_data_name</td><td valign="top">:</td><td><div>session_data_admanager</div></td></tr><tr><td style="font-weight:bold;vertical-align:top">session_file</td><td valign="top">:</td><td><div>&lt;open file &#x27;/home/fernando/web2py/applications/admanager/sessions/127.0.0.1-fe3a16e3-42e3-456d-bd1b-75a619842a6e&#x27;, mode &#x27;rb+&#x27; at 0x7f08117b1c90&gt;</div></td></tr><tr><td style="font-weight:bold;vertical-align:top">session_filename</td><td valign="top">:</td><td><div>/home/fernando/web2py/applications/admanager/sessions/127.0.0.1-fe3a16e3-42e3-456d-bd1b-75a619842a6e</div></td></tr><tr><td style="font-weight:bold;vertical-align:top">session_id</td><td valign="top">:</td><td><div>127.0.0.1-fe3a16e3-42e3-456d-bd1b-75a619842a6e</div></td></tr><tr><td style="font-weight:bold;vertical-align:top">session_id_name</td><td valign="top">:</td><td><div>session_id_admanager</div></td></tr><tr><td style="font-weight:bold;vertical-align:top">session_locked</td><td valign="top">:</td><td><div>True</div></td></tr><tr><td style="font-weight:bold;vertical-align:top">session_new</td><td valign="top">:</td><td><div>False</div></td></tr><tr><td style="font-weight:bold;vertical-align:top">session_storage_type</td><td valign="top">:</td><td><div>file</div></td></tr><tr><td style="font-weight:bold;vertical-align:top">status</td><td valign="top">:</td><td><div>200</div></td></tr><tr><td style="font-weight:bold;vertical-align:top">title</td><td valign="top">:</td><td><div>Autentica\xc3\xa7\xc3\xa3o SIP/IAX</div></td></tr><tr><td style="font-weight:bold;vertical-align:top">view</td><td valign="top">:</td><td><div>ramais/form_sip_iax.html</div></td></tr></table></div>'
tRp122
sS'locals'
p123
(dp124
S'OBJECT'
p125
S"<class 'gluon.html.OBJECT'>"
p126
sS'SQLDB'
p127
S"<class 'gluon.dal.DAL'>"
p128
sg115
S"<Storage {'_formkey[fisico_sip_iax/create]': '9d...login]': '15c17acb-f2d1-4f38-87f2-d4a312304a93'}>"
p129
sS'LINK'
p130
S"<class 'gluon.html.LINK'>"
p131
sS'BR'
p132
S"<class 'gluon.html.BR'>"
p133
sS'local_import'
p134
S'<function <lambda>>'
p135
sS'OPTGROUP'
p136
S"<class 'gluon.html.OPTGROUP'>"
p137
sS'query'
p138
S'<Query (f_submenu.menu_ref = 12)>'
p139
sS'__package__'
p140
S'None'
p141
sS'PRE'
p142
S"<class 'gluon.html.PRE'>"
p143
sS'IS_INT_IN_RANGE'
p144
S"<class 'gluon.validators.IS_INT_IN_RANGE'>"
p145
sS'IS_LOWER'
p146
S"<class 'gluon.validators.IS_LOWER'>"
p147
sS'IS_STRONG'
p148
S"<class 'gluon.validators.IS_STRONG'>"
p149
sS'menu'
p150
S'<Rows (12)>'
p151
sS'cache'
p152
S'<gluon.cache.Cache object>'
p153
sS'IS_IN_DB'
p154
S"<class 'gluon.validators.IS_IN_DB'>"
p155
sS'TAG'
p156
S'<gluon.html.__TAG__ object>'
p157
sS'SQLField'
p158
S"<class 'gluon.dal.Field'>"
p159
sS'mail'
p160
S'<gluon.tools.Mail object>'
p161
sS'logger'
p162
S'<logging.Logger object>'
p163
sS'BODY'
p164
S"<class 'gluon.html.BODY'>"
p165
sS'IS_DATE_IN_RANGE'
p166
S"<class 'gluon.validators.IS_DATE_IN_RANGE'>"
p167
sS'IFRAME'
p168
S"<class 'gluon.html.IFRAME'>"
p169
sS'URL'
p170
S'<function URL>'
p171
sS'config'
p172
S"<Storage {'mail': <Storage {}>, 'db': <Storage {...r_dev', 'pool_size': 10}>, 'auth': <Storage {}>}>"
p173
sS'__file__'
p174
S"'/home/fernando/web2py/applications/admanager/views/ramais/form_sip_iax.html'"
p175
sS'db'
p176
S'<DAL uri="postgres:pg8000:******@127.0.0.1/admanager_dev">'
p177
sS'auth'
p178
S'<gluon.tools.Auth object>'
p179
sS'P'
S"<class 'gluon.html.P'>"
p180
sS'TFOOT'
p181
S"<class 'gluon.html.TFOOT'>"
p182
sS'XHTML'
p183
S"<class 'gluon.html.XHTML'>"
p184
sS'datetime'
p185
S"<module 'datetime' from '/usr/lib/python2.7/lib-dynload/datetime.x86_64-linux-gnu.so'>"
p186
sS'ON'
p187
S'True'
p188
sS'OL'
p189
S"<class 'gluon.html.OL'>"
p190
sS'TEXTAREA'
p191
S"<class 'gluon.html.TEXTAREA'>"
p192
sS'MENU'
p193
S"<class 'gluon.html.MENU'>"
p194
sS'IS_IMAGE'
p195
S"<class 'gluon.validators.IS_IMAGE'>"
p196
sS'EM'
p197
S"<class 'gluon.html.EM'>"
p198
sS'CODE'
p199
S"<class 'gluon.html.CODE'>"
p200
sS'HTTP'
p201
S"<class 'gluon.http.HTTP'>"
p202
sS'HR'
p203
S"<class 'gluon.html.HR'>"
p204
sS'IS_DATETIME'
p205
S"<class 'gluon.validators.IS_DATETIME'>"
p206
sS'Storage'
p207
S"<class 'gluon.storage.Storage'>"
p208
sS'STYLE'
p209
S"<class 'gluon.html.STYLE'>"
p210
sS'LABEL'
p211
S"<class 'gluon.html.LABEL'>"
p212
sS'CLEANUP'
p213
S"<class 'gluon.validators.CLEANUP'>"
p214
sS'SELECT'
p215
S"<class 'gluon.html.SELECT'>"
p216
sS'CENTER'
p217
S"<class 'gluon.html.CENTER'>"
p218
sS'Auth'
p219
S"<class 'gluon.tools.Auth'>"
p220
sS'__builtins__'
p221
S"{'ArithmeticError': <type 'exceptions.ArithmeticError'>, 'AssertionError': <type 'exceptions.AssertionError'>, 'AttributeError': <type 'exceptions.AttributeError'>, 'BaseException': <type 'exceptions.BaseException'>, 'BufferError': <type 'exceptions.BufferError'>, 'BytesWarning': <type 'exceptions.BytesWarning'>, 'DeprecationWarning': <type 'exceptions.DeprecationWarning'>, 'EOFError': <type 'exceptions.EOFError'>, 'Ellipsis': Ellipsis, 'EnvironmentError': <type 'exceptions.EnvironmentError'>, ...}"
p222
sS'HTML'
p223
S"<class 'gluon.html.HTML'>"
p224
sS'SQLFORM'
p225
S"<class 'gluon.sqlhtml.SQLFORM'>"
p226
sS'LOAD'
p227
S'<function LOAD>'
p228
sS'redirect'
p229
S'<function redirect>'
p230
sS'FIELDSET'
p231
S"<class 'gluon.html.FIELDSET'>"
p232
sS'IS_EQUAL_TO'
p233
S"<class 'gluon.validators.IS_EQUAL_TO'>"
p234
sS'permissao'
p235
S'<function permissao>'
p236
sS'embed64'
p237
S'<function embed64>'
p238
sS'IS_LIST_OF'
p239
S"<class 'gluon.validators.IS_LIST_OF'>"
p240
sS'codecs'
p241
S"['all', 'ulaw', 'alaw', 'g729', 'gsm', 'speex']"
p242
sS'INPUT'
p243
S"<class 'gluon.html.INPUT'>"
p244
sS'EMBED'
p245
S"<class 'gluon.html.EMBED'>"
p246
sS'logging'
p247
S"<module 'logging' from '/usr/lib/python2.7/logging/__init__.pyc'>"
p248
sS'H2'
p249
S"<class 'gluon.html.H2'>"
p250
sS'H3'
p251
S"<class 'gluon.html.H3'>"
p252
sS'BUTTON'
p253
S"<class 'gluon.html.BUTTON'>"
p254
sS'H1'
p255
S"<class 'gluon.html.H1'>"
p256
sS'H6'
p257
S"<class 'gluon.html.H6'>"
p258
sS'H4'
p259
S"<class 'gluon.html.H4'>"
p260
sS'H5'
p261
S"<class 'gluon.html.H5'>"
p262
sS'UL'
p263
S"<class 'gluon.html.UL'>"
p264
sS'IS_UPPER'
p265
S"<class 'gluon.validators.IS_UPPER'>"
p266
sS'xmlescape'
p267
S'<function xmlescape>'
p268
sS'IS_TIME'
p269
S"<class 'gluon.validators.IS_TIME'>"
p270
sS'OPTION'
p271
S"<class 'gluon.html.OPTION'>"
p272
sS'TITLE'
p273
S"<class 'gluon.html.TITLE'>"
p274
sS'CRYPT'
p275
S"<class 'gluon.validators.CRYPT'>"
p276
sS'IS_EMPTY_OR'
p277
S"<class 'gluon.validators.IS_EMPTY_OR'>"
p278
sS'MARKMIN'
p279
S"<class 'gluon.html.MARKMIN'>"
p280
sS'notifica'
p281
S'<function notifica>'
p282
sS'STRONG'
p283
S"<class 'gluon.html.STRONG'>"
p284
sS'COL'
p285
S"<class 'gluon.html.COL'>"
p286
sS'SCRIPT'
p287
S"<class 'gluon.html.SCRIPT'>"
p288
sS'TABLE'
p289
S"<class 'gluon.html.TABLE'>"
p290
sS'THEAD'
p291
S"<class 'gluon.html.THEAD'>"
p292
sS'IS_IPV4'
p293
S"<class 'gluon.validators.IS_IPV4'>"
p294
sS'IS_LENGTH'
p295
S"<class 'gluon.validators.IS_LENGTH'>"
p296
sS'IS_IPV6'
p297
S"<class 'gluon.validators.IS_IPV6'>"
p298
sS'XML'
p299
S"<class 'gluon.html.XML'>"
p300
sS'ANY_OF'
p301
S"<class 'gluon.validators.ANY_OF'>"
p302
sS'B'
S"<class 'gluon.html.B'>"
p303
sS'IMG'
p304
S"<class 'gluon.html.IMG'>"
p305
sS'SQLTABLE'
p306
S"<class 'gluon.sqlhtml.SQLTABLE'>"
p307
sS'IS_MATCH'
p308
S"<class 'gluon.validators.IS_MATCH'>"
p309
sS'IS_ALPHANUMERIC'
p310
S"<class 'gluon.validators.IS_ALPHANUMERIC'>"
p311
sS'SPAN'
p312
S"<class 'gluon.html.SPAN'>"
p313
sS'IS_JSON'
p314
S"<class 'gluon.validators.IS_JSON'>"
p315
sS'IS_IPADDRESS'
p316
S"<class 'gluon.validators.IS_IPADDRESS'>"
p317
sS'IS_SLUG'
p318
S"<class 'gluon.validators.IS_SLUG'>"
p319
sS'BEAUTIFY'
p320
S"<class 'gluon.html.BEAUTIFY'>"
p321
sS'META'
p322
S"<class 'gluon.html.META'>"
p323
sS'IS_DATE'
p324
S"<class 'gluon.validators.IS_DATE'>"
p325
sS'IS_EMAIL'
p326
S"<class 'gluon.validators.IS_EMAIL'>"
p327
sS'IS_NOT_EMPTY'
p328
S"<class 'gluon.validators.IS_NOT_EMPTY'>"
p329
sS'IS_FLOAT_IN_RANGE'
p330
S"<class 'gluon.validators.IS_FLOAT_IN_RANGE'>"
p331
sS'TBODY'
p332
S"<class 'gluon.html.TBODY'>"
p333
sS'CAT'
p334
S"<class 'gluon.html.CAT'>"
p335
sS'Field'
p336
S"<class 'gluon.dal.Field'>"
p337
sS'DIV'
p338
S"<class 'gluon.html.DIV'>"
p339
sS'LEGEND'
p340
S"<class 'gluon.html.LEGEND'>"
p341
sS'form'
p342
S'<gluon.sqlhtml.SQLFORM object>'
p343
sS'COLGROUP'
p344
S"<class 'gluon.html.COLGROUP'>"
p345
sS'DAL'
p346
S"<class 'gluon.dal.DAL'>"
p347
sS'TT'
p348
S"<class 'gluon.html.TT'>"
p349
sS'TR'
p350
S"<class 'gluon.html.TR'>"
p351
sS'LI'
p352
S"<class 'gluon.html.LI'>"
p353
sS'TH'
p354
S"<class 'gluon.html.TH'>"
p355
sS'TD'
p356
S"<class 'gluon.html.TD'>"
p357
sS'IS_URL'
p358
S"<class 'gluon.validators.IS_URL'>"
p359
sS'A'
S"<class 'gluon.html.A'>"
p360
sS'HEAD'
p361
S"<class 'gluon.html.HEAD'>"
p362
sS'IS_NULL_OR'
p363
S"<class 'gluon.validators.IS_EMPTY_OR'>"
p364
sS'IS_DATETIME_IN_RANGE'
p365
S"<class 'gluon.validators.IS_DATETIME_IN_RANGE'>"
p366
sS'FORM'
p367
S"<class 'gluon.html.FORM'>"
p368
sS'I'
S"<class 'gluon.html.I'>"
p369
sS'IS_NOT_IN_DB'
p370
S"<class 'gluon.validators.IS_NOT_IN_DB'>"
p371
sg121
S"<Storage {'body': <cStringIO.StringO object at 0...08118076e0>, 'view': 'ramais/form_sip_iax.html'}>"
p372
sS'sub'
p373
S"<Row {'ordem': 2L, 'nome': 'DAHDI/KHOMP', 'funca...hevron-right', 'controller': 'ramais', 'id': 8L}>"
p374
sS'submenu'
p375
S'<Rows (2)>'
p376
sS'dado'
p377
S"<Row {'submenu': True, 'ordem': 15L, 'nome': 'Ra...icone': 'icon-list-alt', 'controller': 'ramais'}>"
p378
sS'__name__'
p379
S"'__restricted__'"
p380
sg56
S"<Storage {'function': 'fisico_sip_iax_form', 'bo...ications/admanager/', 'post_vars': <Storage {}>}>"
p381
sS'IS_EXPR'
p382
S"<class 'gluon.validators.IS_EXPR'>"
p383
sS'T'
S'<gluon.languages.translator object>'
p384
sS'IS_IN_SET'
p385
S"<class 'gluon.validators.IS_IN_SET'>"
p386
sS'IS_UPLOAD_FILENAME'
p387
S"<class 'gluon.validators.IS_UPLOAD_FILENAME'>"
p388
sS'IS_DECIMAL_IN_RANGE'
p389
S"<class 'gluon.validators.IS_DECIMAL_IN_RANGE'>"
p390
sssS'traceback'
p391
S'Traceback (most recent call last):\n  File "/home/fernando/web2py/gluon/restricted.py", line 212, in restricted\n    exec ccode in environment\n  File "/home/fernando/web2py/applications/admanager/views/ramais/form_sip_iax.html", line 113, in <module>\nNameError: name \'url\' is not defined\n'
p392
s.