(dp1
S'output'
p2
S"<type 'exceptions.AttributeError'> 'Row' object has no attribute 'tipo_chamada'"
p3
sS'layer'
p4
S'/home/fernando/web2py/applications/admanager/views/funcional/show_rotas.html'
p5
sS'code'
p6
S'response.write(\'<!DOCTYPE html>\\n<html lang="pt-br">\\n<head>\\n\\t\\n\\t<!-- start: Meta -->\\n\\t<meta charset="utf-8">\\n\\t<title>ForIP Manager</title>\\n\\t<meta name="description" content="ADManager 2.5">\\n\\t<meta name="author" content="Fernando Vieira - ForIP">\\n\\t<meta name="keyword" content="Genius, Dashboard, Bootstrap, Admin, Template, Theme, Responsive, Fluid, Retina">\\n\\t<!-- end: Meta -->\\n\\t\\n\\t<!-- start: Mobile Specific -->\\n\\t<meta name="viewport" content="width=device-width, initial-scale=1">\\n\\t<!-- end: Mobile Specific -->\\n\\t\\n\\t<!-- start: CSS -->\\n\\t<link href="\', escape=False)\nresponse.write(URL(a=\'admanager\', c=\'static\', f=\'css\'))\nresponse.write(\'/web2py.css" rel="stylesheet">\\n\\t<link href="\', escape=False)\nresponse.write(URL(a=\'admanager\', c=\'static\', f=\'css\'))\nresponse.write(\'/web2py_bootstrap.css" rel="stylesheet">\\n\\n\\t<link href="\', escape=False)\nresponse.write(URL(a=\'admanager\', c=\'static\', f=\'css\'))\nresponse.write(\'/bootstrap.min.css" rel="stylesheet">\\n\\t<link href="\', escape=False)\nresponse.write(URL(a=\'admanager\', c=\'static\', f=\'css\'))\nresponse.write(\'/style.min.css" rel="stylesheet">\\n\\t<link href="\', escape=False)\nresponse.write(URL(a=\'admanager\', c=\'static\', f=\'css\'))\nresponse.write(\'/retina.min.css" rel="stylesheet">\\n\\t<link href="\', escape=False)\nresponse.write(URL(a=\'admanager\', c=\'static\', f=\'css\'))\nresponse.write(\'/print.css" rel="stylesheet" type="text/css" media="print"/>\\n\\t<!-- end: CSS -->\\n\\t\\n\\n\\t<!-- The HTML5 shim, for IE6-8 support of HTML5 elements -->\\n\\t<!--[if lt IE 9]>\\n\\t\\t\\n\\t  \\t<script src="http://html5shim.googlecode.com/svn/trunk/html5.js"></script>\\n\\t\\t<script src="\', escape=False)\nresponse.write(URL(a=\'admanager\', c=\'static\', f=\'js\'))\nresponse.write(\'/respond.min.js"></script>\\n\\t\\t\\n\\t<![endif]-->\\n\\t\\n\\t<!-- start: Favicon and Touch Icons -->\\n\\t<link rel="apple-touch-icon-precomposed" sizes="144x144" href="\', escape=False)\nresponse.write(URL(a=\'admanager\', c=\'static\', f=\'ico\'))\nresponse.write(\'/apple-touch-icon-144-precomposed.png">\\n\\t<link rel="apple-touch-icon-precomposed" sizes="114x114" href="\', escape=False)\nresponse.write(URL(a=\'admanager\', c=\'static\', f=\'ico\'))\nresponse.write(\'/apple-touch-icon-114-precomposed.png">\\n\\t<link rel="apple-touch-icon-precomposed" sizes="72x72" href="\', escape=False)\nresponse.write(URL(a=\'admanager\', c=\'static\', f=\'ico\'))\nresponse.write(\'/apple-touch-icon-72-precomposed.png">\\n\\t<link rel="apple-touch-icon-precomposed" sizes="57x57" href="\', escape=False)\nresponse.write(URL(a=\'admanager\', c=\'static\', f=\'ico\'))\nresponse.write(\'/apple-touch-icon-57-precomposed.png">\\n\\t<link rel="shortcut icon" href="\', escape=False)\nresponse.write(URL(a=\'admanager\', c=\'static\', f=\'ico\'))\nresponse.write(\'/favicon.png">\\n\\t<!-- end: Favicon and Touch Icons -->\\t\\n\\t\\t\\n</head>\\n\\n<body>\\n\\n\\t\\t<!-- start: Header -->\\n\\t<header class="navbar">\\n\\t\\t<div class="flash">\', escape=False)\nresponse.write(response.flash or \'\')\nresponse.write(\'</div>\\n\\t\\t<div class="container">\\n\\t\\t\\t<button class="navbar-toggle" type="button" data-toggle="collapse" data-target=".sidebar-nav.nav-collapse">\\n\\t\\t\\t      <span class="icon-bar"></span>\\n\\t\\t\\t      <span class="icon-bar"></span>\\n\\t\\t\\t      <span class="icon-bar"></span>\\n\\t\\t\\t</button>\\n\\t\\t\\t<a id="main-menu-toggle" class="hidden-xs open"><i class="icon-reorder"></i></a>\\t\\t\\n\\t\\t\\t<a class="navbar-brand col-md-2 col-sm-1 col-xs-2" href="index-2.html"><span>ADManager</span></a>\\n\\t\\t\\t<!--<div id="search" class="col-sm-5 col-xs-8 col-lg-3">\\n\\t\\t\\t\\t<select>\\n\\t\\t\\t\\t\\t<option>everything</option>\\n\\t\\t\\t\\t\\t<option>messages</option>\\n\\t\\t\\t\\t\\t<option>comments</option>\\n\\t\\t\\t\\t\\t<option>users</option>\\n\\t\\t\\t  \\t</select>\\n\\t\\t\\t\\t<input type="text" placeholder="search" />\\n\\t\\t\\t\\t<i class="icon-search"></i>\\n\\t\\t\\t</div>-->\\n\\t\\t\\t<!-- start: Header Menu -->\\n\\t\\t\\t<div class="nav-no-collapse header-nav">\\n\\t\\t\\t\\t<ul class="nav navbar-nav pull-right">\\n\\t\\t\\t\\t\\t<li class="dropdown hidden-xs">\\n\\t\\t\\t\\t\\t\\t<a class="btn dropdown-toggle" data-toggle="dropdown" href="ui-sliders-progress.html#">\\n\\t\\t\\t\\t\\t\\t\\t<i class="icon-warning-sign"></i>\\n\\t\\t\\t\\t\\t\\t\\t<span class="number">11</span>\\n\\t\\t\\t\\t\\t\\t</a>\\n\\t\\t\\t\\t\\t\\t<ul class="dropdown-menu notifications">\\n\\t\\t\\t\\t\\t\\t\\t<li class="dropdown-menu-title">\\n\\t\\t\\t\\t\\t\\t\\t\\t<span>You have 11 notifications</span>\\n\\t\\t\\t\\t\\t\\t\\t</li>\\t\\n                        \\t<li>\\n                                <a href="ui-sliders-progress.html#">\\n\\t\\t\\t\\t\\t\\t\\t\\t\\t<span class="icon blue"><i class="icon-user"></i></span>\\n\\t\\t\\t\\t\\t\\t\\t\\t\\t<span class="message">New user registration</span>\\n\\t\\t\\t\\t\\t\\t\\t\\t\\t<span class="time">1 min</span> \\n                                </a>\\n                            </li>\\n\\t\\t\\t\\t\\t\\t\\t<li>\\n                                <a href="ui-sliders-progress.html#">\\n\\t\\t\\t\\t\\t\\t\\t\\t\\t<span class="icon green"><i class="icon-comment-alt"></i></span>\\n\\t\\t\\t\\t\\t\\t\\t\\t\\t<span class="message">New comment</span>\\n\\t\\t\\t\\t\\t\\t\\t\\t\\t<span class="time">7 min</span> \\n                                </a>\\n                            </li>\\n\\t\\t\\t\\t\\t\\t\\t<li>\\n                                <a href="ui-sliders-progress.html#">\\n\\t\\t\\t\\t\\t\\t\\t\\t\\t<span class="icon green"><i class="icon-comment-alt"></i></span>\\n\\t\\t\\t\\t\\t\\t\\t\\t\\t<span class="message">New comment</span>\\n\\t\\t\\t\\t\\t\\t\\t\\t\\t<span class="time">8 min</span> \\n                                </a>\\n                            </li>\\n\\t\\t\\t\\t\\t\\t\\t<li>\\n                                <a href="ui-sliders-progress.html#">\\n\\t\\t\\t\\t\\t\\t\\t\\t\\t<span class="icon green"><i class="icon-comment-alt"></i></span>\\n\\t\\t\\t\\t\\t\\t\\t\\t\\t<span class="message">New comment</span>\\n\\t\\t\\t\\t\\t\\t\\t\\t\\t<span class="time">16 min</span> \\n                                </a>\\n                            </li>\\n\\t\\t\\t\\t\\t\\t\\t<li>\\n                                <a href="ui-sliders-progress.html#">\\n\\t\\t\\t\\t\\t\\t\\t\\t\\t<span class="icon blue"><i class="icon-user"></i></span>\\n\\t\\t\\t\\t\\t\\t\\t\\t\\t<span class="message">New user registration</span>\\n\\t\\t\\t\\t\\t\\t\\t\\t\\t<span class="time">36 min</span> \\n                                </a>\\n                            </li>\\n\\t\\t\\t\\t\\t\\t\\t<li>\\n                                <a href="ui-sliders-progress.html#">\\n\\t\\t\\t\\t\\t\\t\\t\\t\\t<span class="icon yellow"><i class="icon-shopping-cart"></i></span>\\n\\t\\t\\t\\t\\t\\t\\t\\t\\t<span class="message">2 items sold</span>\\n\\t\\t\\t\\t\\t\\t\\t\\t\\t<span class="time">1 hour</span> \\n                                </a>\\n                            </li>\\n\\t\\t\\t\\t\\t\\t\\t<li class="warning">\\n                                <a href="ui-sliders-progress.html#">\\n\\t\\t\\t\\t\\t\\t\\t\\t\\t<span class="icon red"><i class="icon-user"></i></span>\\n\\t\\t\\t\\t\\t\\t\\t\\t\\t<span class="message">User deleted account</span>\\n\\t\\t\\t\\t\\t\\t\\t\\t\\t<span class="time">2 hour</span> \\n                                </a>\\n                            </li>\\n\\t\\t\\t\\t\\t\\t\\t<li class="warning">\\n                                <a href="ui-sliders-progress.html#">\\n\\t\\t\\t\\t\\t\\t\\t\\t\\t<span class="icon red"><i class="icon-shopping-cart"></i></span>\\n\\t\\t\\t\\t\\t\\t\\t\\t\\t<span class="message">Transaction was canceled</span>\\n\\t\\t\\t\\t\\t\\t\\t\\t\\t<span class="time">6 hour</span> \\n                                </a>\\n                            </li>\\n\\t\\t\\t\\t\\t\\t\\t<li>\\n                                <a href="ui-sliders-progress.html#">\\n\\t\\t\\t\\t\\t\\t\\t\\t\\t<span class="icon green"><i class="icon-comment-alt"></i></span>\\n\\t\\t\\t\\t\\t\\t\\t\\t\\t<span class="message">New comment</span>\\n\\t\\t\\t\\t\\t\\t\\t\\t\\t<span class="time">yesterday</span> \\n                                </a>\\n                            </li>\\n\\t\\t\\t\\t\\t\\t\\t<li>\\n                                <a href="ui-sliders-progress.html#">\\n\\t\\t\\t\\t\\t\\t\\t\\t\\t<span class="icon blue"><i class="icon-user"></i></span>\\n\\t\\t\\t\\t\\t\\t\\t\\t\\t<span class="message">New user registration</span>\\n\\t\\t\\t\\t\\t\\t\\t\\t\\t<span class="time">yesterday</span> \\n                                </a>\\n                            </li>\\n                            <li class="dropdown-menu-sub-footer">\\n                        \\t\\t<a>View all notifications</a>\\n\\t\\t\\t\\t\\t\\t\\t</li>\\t\\n\\t\\t\\t\\t\\t\\t</ul>\\n\\t\\t\\t\\t\\t</li>\\n\\t\\t\\t\\t\\t<!-- start: Notifications Dropdown -->\\n\\t\\t\\t\\t\\t<li class="dropdown hidden-xs">\\n\\t\\t\\t\\t\\t\\t<a class="btn dropdown-toggle" data-toggle="dropdown" href="ui-sliders-progress.html#">\\n\\t\\t\\t\\t\\t\\t\\t<i class="icon-tasks"></i>\\n\\t\\t\\t\\t\\t\\t\\t<span class="number">17</span>\\n\\t\\t\\t\\t\\t\\t</a>\\n\\t\\t\\t\\t\\t\\t<ul class="dropdown-menu tasks">\\n\\t\\t\\t\\t\\t\\t\\t<li>\\n\\t\\t\\t\\t\\t\\t\\t\\t<span class="dropdown-menu-title">You have 17 tasks in progress</span>\\n                        \\t</li>\\n\\t\\t\\t\\t\\t\\t\\t<li>\\n                                <a href="ui-sliders-progress.html#">\\n\\t\\t\\t\\t\\t\\t\\t\\t\\t<span class="header">\\n\\t\\t\\t\\t\\t\\t\\t\\t\\t\\t<span class="title">iOS Development</span>\\n\\t\\t\\t\\t\\t\\t\\t\\t\\t\\t<span class="percent"></span>\\n\\t\\t\\t\\t\\t\\t\\t\\t\\t</span>\\n                                    <div class="taskProgress progressSlim progressBlue">80</div> \\n                                </a>\\n                            </li>\\n                            <li>\\n                                <a href="ui-sliders-progress.html#">\\n\\t\\t\\t\\t\\t\\t\\t\\t\\t<span class="header">\\n\\t\\t\\t\\t\\t\\t\\t\\t\\t\\t<span class="title">Android Development</span>\\n\\t\\t\\t\\t\\t\\t\\t\\t\\t\\t<span class="percent"></span>\\n\\t\\t\\t\\t\\t\\t\\t\\t\\t</span>\\n                                    <div class="taskProgress progressSlim progressYellow">47</div> \\n                                </a>\\n                            </li>\\n                            <li>\\n                                <a href="ui-sliders-progress.html#">\\n\\t\\t\\t\\t\\t\\t\\t\\t\\t<span class="header">\\n\\t\\t\\t\\t\\t\\t\\t\\t\\t\\t<span class="title">Django Project For Google</span>\\n\\t\\t\\t\\t\\t\\t\\t\\t\\t\\t<span class="percent"></span>\\n\\t\\t\\t\\t\\t\\t\\t\\t\\t</span>\\n                                    <div class="taskProgress progressSlim progressRed">32</div> \\n                                </a>\\n                            </li>\\n\\t\\t\\t\\t\\t\\t\\t<li>\\n                                <a href="ui-sliders-progress.html#">\\n\\t\\t\\t\\t\\t\\t\\t\\t\\t<span class="header">\\n\\t\\t\\t\\t\\t\\t\\t\\t\\t\\t<span class="title">SEO for new sites</span>\\n\\t\\t\\t\\t\\t\\t\\t\\t\\t\\t<span class="percent"></span>\\n\\t\\t\\t\\t\\t\\t\\t\\t\\t</span>\\n                                    <div class="taskProgress progressSlim progressGreen">63</div> \\n                                </a>\\n                            </li>\\n                            <li>\\n                                <a href="ui-sliders-progress.html#">\\n\\t\\t\\t\\t\\t\\t\\t\\t\\t<span class="header">\\n\\t\\t\\t\\t\\t\\t\\t\\t\\t\\t<span class="title">New blog posts</span>\\n\\t\\t\\t\\t\\t\\t\\t\\t\\t\\t<span class="percent"></span>\\n\\t\\t\\t\\t\\t\\t\\t\\t\\t</span>\\n                                    <div class="taskProgress progressSlim progressPink">80</div> \\n                                </a>\\n                            </li>\\n\\t\\t\\t\\t\\t\\t\\t<li>\\n                        \\t\\t<a class="dropdown-menu-sub-footer">View all tasks</a>\\n\\t\\t\\t\\t\\t\\t\\t</li>\\t\\n\\t\\t\\t\\t\\t\\t</ul>\\n\\t\\t\\t\\t\\t</li>\\n\\t\\t\\t\\t\\t<!-- end: Notifications Dropdown -->\\n\\t\\t\\t\\t\\t<!-- start: Message Dropdown -->\\n\\t\\t\\t\\t\\t<li class="dropdown hidden-xs">\\n\\t\\t\\t\\t\\t\\t<a class="btn dropdown-toggle" data-toggle="dropdown" href="ui-sliders-progress.html#">\\n\\t\\t\\t\\t\\t\\t\\t<i class="icon-envelope"></i>\\n\\t\\t\\t\\t\\t\\t\\t<span class="number">9</span>\\n\\t\\t\\t\\t\\t\\t</a>\\n\\t\\t\\t\\t\\t\\t<ul class="dropdown-menu messages">\\n\\t\\t\\t\\t\\t\\t\\t<li>\\n\\t\\t\\t\\t\\t\\t\\t\\t<span class="dropdown-menu-title">You have 9 messages</span>\\n\\t\\t\\t\\t\\t\\t\\t</li>\\t\\n                        \\t<li>\\n                                <a href="ui-sliders-progress.html#">\\n\\t\\t\\t\\t\\t\\t\\t\\t\\t<span class="avatar"><img src="\', escape=False)\nresponse.write(URL(a=\'admanager\', c=\'static\', f=\'images\'))\nresponse.write(\'/avatar.jpg" alt="Avatar"></span>\\n\\t\\t\\t\\t\\t\\t\\t\\t\\t<span class="header">\\n\\t\\t\\t\\t\\t\\t\\t\\t\\t\\t<span class="from">\\n\\t\\t\\t\\t\\t\\t\\t\\t\\t    \\t\\xc5\\x81ukasz Holeczek\\n\\t\\t\\t\\t\\t\\t\\t\\t\\t     </span>\\n\\t\\t\\t\\t\\t\\t\\t\\t\\t\\t<span class="time">\\n\\t\\t\\t\\t\\t\\t\\t\\t\\t    \\t6 min\\n\\t\\t\\t\\t\\t\\t\\t\\t\\t    </span>\\n\\t\\t\\t\\t\\t\\t\\t\\t\\t</span>\\n                                    <span class="message">\\n                                        Lorem ipsum dolor sit amet consectetur adipiscing elit, et al commore\\n                                    </span>  \\n                                </a>\\n                            </li>\\n                            <li>\\n                                <a href="ui-sliders-progress.html#">\\n\\t\\t\\t\\t\\t\\t\\t\\t\\t<span class="avatar"><img src="\', escape=False)\nresponse.write(URL(a=\'admanager\', c=\'static\', f=\'images\'))\nresponse.write(\'/avatar2.jpg" alt="Avatar"></span>\\n\\t\\t\\t\\t\\t\\t\\t\\t\\t<span class="header">\\n\\t\\t\\t\\t\\t\\t\\t\\t\\t\\t<span class="from">\\n\\t\\t\\t\\t\\t\\t\\t\\t\\t    \\tMegan Abott\\n\\t\\t\\t\\t\\t\\t\\t\\t\\t     </span>\\n\\t\\t\\t\\t\\t\\t\\t\\t\\t\\t<span class="time">\\n\\t\\t\\t\\t\\t\\t\\t\\t\\t    \\t56 min\\n\\t\\t\\t\\t\\t\\t\\t\\t\\t    </span>\\n\\t\\t\\t\\t\\t\\t\\t\\t\\t</span>\\n                                    <span class="message">\\n                                        Lorem ipsum dolor sit amet consectetur adipiscing elit, et al commore\\n                                    </span>  \\n                                </a>\\n                            </li>\\n                            <li>\\n                                <a href="ui-sliders-progress.html#">\\n\\t\\t\\t\\t\\t\\t\\t\\t\\t<span class="avatar"><img src="\', escape=False)\nresponse.write(URL(a=\'admanager\', c=\'static\', f=\'images\'))\nresponse.write(\'/avatar3.jpg" alt="Avatar"></span>\\n\\t\\t\\t\\t\\t\\t\\t\\t\\t<span class="header">\\n\\t\\t\\t\\t\\t\\t\\t\\t\\t\\t<span class="from">\\n\\t\\t\\t\\t\\t\\t\\t\\t\\t    \\tKate Ross\\n\\t\\t\\t\\t\\t\\t\\t\\t\\t     </span>\\n\\t\\t\\t\\t\\t\\t\\t\\t\\t\\t<span class="time">\\n\\t\\t\\t\\t\\t\\t\\t\\t\\t    \\t3 hours\\n\\t\\t\\t\\t\\t\\t\\t\\t\\t    </span>\\n\\t\\t\\t\\t\\t\\t\\t\\t\\t</span>\\n                                    <span class="message">\\n                                        Lorem ipsum dolor sit amet consectetur adipiscing elit, et al commore\\n                                    </span>  \\n                                </a>\\n                            </li>\\n\\t\\t\\t\\t\\t\\t\\t<li>\\n                                <a href="ui-sliders-progress.html#">\\n\\t\\t\\t\\t\\t\\t\\t\\t\\t<span class="avatar"><img src="\', escape=False)\nresponse.write(URL(a=\'admanager\', c=\'static\', f=\'images\'))\nresponse.write(\'/avatar4.jpg" alt="Avatar"></span>\\n\\t\\t\\t\\t\\t\\t\\t\\t\\t<span class="header">\\n\\t\\t\\t\\t\\t\\t\\t\\t\\t\\t<span class="from">\\n\\t\\t\\t\\t\\t\\t\\t\\t\\t    \\tJulie Blank\\n\\t\\t\\t\\t\\t\\t\\t\\t\\t     </span>\\n\\t\\t\\t\\t\\t\\t\\t\\t\\t\\t<span class="time">\\n\\t\\t\\t\\t\\t\\t\\t\\t\\t    \\tyesterday\\n\\t\\t\\t\\t\\t\\t\\t\\t\\t    </span>\\n\\t\\t\\t\\t\\t\\t\\t\\t\\t</span>\\n                                    <span class="message">\\n                                        Lorem ipsum dolor sit amet consectetur adipiscing elit, et al commore\\n                                    </span>  \\n                                </a>\\n                            </li>\\n                            <li>\\n                                <a href="ui-sliders-progress.html#">\\n\\t\\t\\t\\t\\t\\t\\t\\t\\t<span class="avatar"><img src="\', escape=False)\nresponse.write(URL(a=\'admanager\', c=\'static\', f=\'images\'))\nresponse.write(\'/avatar5.jpg" alt="Avatar"></span>\\n\\t\\t\\t\\t\\t\\t\\t\\t\\t<span class="header">\\n\\t\\t\\t\\t\\t\\t\\t\\t\\t\\t<span class="from">\\n\\t\\t\\t\\t\\t\\t\\t\\t\\t    \\tJane Sanders\\n\\t\\t\\t\\t\\t\\t\\t\\t\\t     </span>\\n\\t\\t\\t\\t\\t\\t\\t\\t\\t\\t<span class="time">\\n\\t\\t\\t\\t\\t\\t\\t\\t\\t    \\tJul 25, 2012\\n\\t\\t\\t\\t\\t\\t\\t\\t\\t    </span>\\n\\t\\t\\t\\t\\t\\t\\t\\t\\t</span>\\n                                    <span class="message">\\n                                        Lorem ipsum dolor sit amet consectetur adipiscing elit, et al commore\\n                                    </span>  \\n                                </a>\\n                            </li>\\n\\t\\t\\t\\t\\t\\t\\t<li>\\n                        \\t\\t<a class="dropdown-menu-sub-footer">View all messages</a>\\n\\t\\t\\t\\t\\t\\t\\t</li>\\t\\n\\t\\t\\t\\t\\t\\t</ul>\\n\\t\\t\\t\\t\\t</li>\\n\\t\\t\\t\\t\\t<!-- end: Message Dropdown -->\\n\\t\\t\\t\\t\\t<li>\\n\\t\\t\\t\\t\\t\\t<a class="btn dropdown-toggle" data-toggle="dropdown">\\n\\t\\t\\t\\t\\t\\t<i class="icon-wrench"></i></a>\\n\\n\\t\\t\\t\\t\\t\\t<ul class="dropdown-menu">\\n\\t\\t\\t\\t\\t\\t\\t<li><a href="\', escape=False)\nresponse.write(URL(a=\'admanager\', c=\'initial\', f=\'profile\'))\nresponse.write(\'"><i class="icon-user"></i> Profile</a></li>\\n\\t\\t\\t\\t\\t\\t\\t<li><a href="ui-elements.html#"><i class="icon-cog"></i> Settings</a></li>\\n\\t\\t\\t\\t\\t\\t\\t<li><a href="\', escape=False)\nresponse.write(URL(a=\'admanager\', c=\'initial\', f=\'change_password\'))\nresponse.write(\'"><i class="icon-key"></i> Trocar senha</a></li>\\n\\t\\t\\t\\t\\t\\t\\t<li><a href="\', escape=False)\nresponse.write(URL(a=\'admanager\', c=\'initial\', f=\'user/logout\'))\nresponse.write(\'"><i class="icon-off"></i> Logout</a></li>\\n\\t\\t\\t\\t\\t\\t</ul>\\n\\t\\t\\t\\t\\t\\t\\n\\t\\t\\t\\t\\t</li>\\n\\t\\t\\t\\t\\t<!-- start: User Dropdown -->\\n\\t\\t\\t\\t\\t<!--<li class="dropdown">\\n\\t\\t\\t\\t\\t\\t<a class="btn account dropdown-toggle" data-toggle="dropdown" href="ui-sliders-progress.html#">\\n\\t\\t\\t\\t\\t\\t\\t<div class="avatar"><img src="\', escape=False)\nresponse.write(URL(a=\'admanager\', c=\'static\', f=\'images\'))\nresponse.write(\'/avatar.jpg" alt="Avatar"></div>\\n\\t\\t\\t\\t\\t\\t\\t<div class="user">\\n\\t\\t\\t\\t\\t\\t\\t\\t<span class="hello">Welcome!</span>\\n\\t\\t\\t\\t\\t\\t\\t\\t<span class="name">\\xc5\\x81ukasz Holeczek</span>\\n\\t\\t\\t\\t\\t\\t\\t</div>\\n\\t\\t\\t\\t\\t\\t</a>\\n\\t\\t\\t\\t\\t\\t<ul class="dropdown-menu">\\n\\t\\t\\t\\t\\t\\t\\t<li><a href="ui-sliders-progress.html#"><i class="icon-user"></i> Profile</a></li>\\n\\t\\t\\t\\t\\t\\t\\t<li><a href="ui-sliders-progress.html#"><i class="icon-cog"></i> Settings</a></li>\\n\\t\\t\\t\\t\\t\\t\\t<li><a href="ui-sliders-progress.html#"><i class="icon-envelope"></i> Messages</a></li>\\n\\t\\t\\t\\t\\t\\t\\t<li><a href="page-login.html"><i class="icon-off"></i> Logout</a></li>\\n\\t\\t\\t\\t\\t\\t</ul>\\n\\t\\t\\t\\t\\t</li>-->\\n\\t\\t\\t\\t\\t<!-- end: User Dropdown -->\\n\\t\\t\\t\\t</ul>\\n\\t\\t\\t</div>\\n\\t\\t\\t<!-- end: Header Menu -->\\n\\t\\t\\t\\n\\t\\t</div>\\t\\n\\t</header>\\n\\t<!-- end: Header -->\\n\\t\\n\\t\\t<div class="container">\\n\\t\\t<div class="row">\\n\\n\\t\\t\\t<!-- start: Main Menu -->\\n\\t\\t\\t<div id="sidebar-left" class="col-lg-2 col-sm-1 ">\\n\\t\\t\\t\\t\\t\\t\\t\\t\\n\\t\\t\\t\\t\', escape=False)\nresponse.write(\'<div class="sidebar-nav nav-collapse collapse navbar-collapse">\\n\\t<ul class="nav main-menu">\\n\\t\\t\\t\\t\\n\\t\\t\', escape=False)\nmenu \t= \tdb(db.f_menu).select(orderby=db.f_menu.ordem)\nfor dado in menu:\n    #print dado\n    if dado.submenu == False:\n        if (auth.has_membership(dado.nome) or auth.has_membership(\'administrador\')):\n            response.write(\'\\n\\t\\t\\t\\t\\t\\t<li><a href="\', escape=False)\n            response.write(URL(a=\'admanager\', c=dado.controller, f=dado.funcao))\n            response.write(\'"><i class="\', escape=False)\n            response.write(dado.icone)\n            response.write(\'"></i><span class="hidden-sm text"> \', escape=False)\n            response.write(dado.nome)\n            response.write(\'</span></a></li>\\n\\t\\t\\t\\t\\t\', escape=False)\n            pass\n        pass\n    if dado.submenu == True:\n        if (auth.has_membership(dado.nome) or auth.has_membership(\'administrador\')):\n            response.write(\'\\n\\t\\t\\t\\t\\t\\t<li>\\n\\t\\t\\t\\t\\t\\t<a class="dropmenu" href="ui-sliders-progress.html#"><i class="icon-list-alt"></i><span class="hidden-sm text"> \', escape=False)\n            response.write(dado.nome)\n            response.write(\'</span> <span class="chevron closed"></span></a>\\n\\t\\t\\t\\t\\t\', escape=False)\n            pass\n        pass\n    query = (dado.id == db.f_submenu.menu_ref)\n    submenu = db(query).select(orderby=db.f_submenu.ordem)\n    response.write(\'\\n\\t\\t\\t\\t<ul>\\n\\t\\t\\t\\t\', escape=False)\n    for sub in submenu:\n        #print sub\n        if (auth.has_membership(sub.nome) or auth.has_membership(\'administrador\')):\n            response.write(\'\\n\\t\\t\\t\\t\\t<li><a class="submenu" href="\', escape=False)\n            response.write(URL(a=\'admanager\', c=sub.controller, f=sub.funcao))\n            response.write(\'"><i class="\', escape=False)\n            response.write(sub.icone)\n            response.write(\'"></i><span class="hidden-sm text"> \', escape=False)\n            response.write(sub.nome)\n            response.write(\'</span></a></li>\\n\\t\\t\\t\\t\\t\', escape=False)\n            pass\n        pass\n    response.write(\'\\n\\t\\t\\t\\t</ul>\\t\\t \\n\\t\\t\\t\', escape=False)\n    pass\nresponse.write(\'\\n\\t</ul>\\n</div>\', escape=False)\nresponse.write(\'\\n\\n\\t\\t\\t\\t<a href="ui-sliders-progress.html#" id="main-menu-min" class="full visible-md visible-lg"><i class="icon-double-angle-left"></i></a>\\n\\t\\t\\t</div>\\n\\t\\t\\t<!-- end: Main Menu -->\\n\\t\\t\\t\\n\\t\\t\\t<!-- start: Content -->\\n\\t\\t\\t<div id="content" class="col-lg-10 col-sm-11 ">\\n\\t\\t\\t\\t\\n\\t\\t\\t<div class="row">\\t\\n\\t\\t\\t\\t<div class="col-lg-12">\\n\\t\\t\\t\\t\\t<ol class="breadcrumb">\\n\\t\\t\\t\\t\\t  \\t<li><a href="ui-sliders-progress.html#">Genius</a></li>\\n\\t\\t\\t\\t\\t\\t<li><a href="ui-sliders-progress.html#">UI Features</a></li>\\n\\t\\t\\t\\t\\t  \\t<li class="active">Sliders & Progress</li>\\n\\t\\t\\t\\t\\t</ol>\\n\\t\\t\\t\\t\\t<div class="box">\\n\\t\\t\\t\\t\\t\\t<div class="box-header">\\n\\t\\t\\t\\t\\t\\t\\t<h2><i class="icon-tasks"></i>\', escape=False)\nresponse.write(response.title or \'\')\nresponse.write(\'</h2>\\n\\t\\t\\t\\t\\t\\t</div>\\n\\t\\t\\t\\t\\t\\t<div class="box-content">\\n\\n\\t\\t\\t\\t\\t\\t<div style="position: fixed; right: 30px; top: 50px; width: 200px">\\n\\t\\t\\t\\t\\t\\t\\t\', escape=False)\nif response.alerta_sucesso != None:\n    response.write(\'\\n\\t <div style="cursor: pointer; display: block;" id="noty_success" class="noty_bar noty_theme_default noty_layout_topLeft noty_success">\\n\\t\\t <div class="noty_message"><span class="noty_text">\', escape=False)\n    response.write(response.alerta_sucesso)\n    response.write(\'</span>\\n\\t\\t </div><button type="button" class="close" data-dismiss="alert">\\xc3\\x97</button>\\n\\t</div>\\n\', escape=False)\n    pass\nresponse.write(\'\\n\\n\', escape=False)\nif response.alerta_erro != None:\n    response.write(\'\\n\\t <div style="cursor: pointer; display: block;" id="noty_error" class="noty_bar noty_theme_default noty_layout_topLeft noty_error">\\n\\t\\t <div class="noty_message"><span class="noty_text">\', escape=False)\n    response.write(response.alerta_erro)\n    response.write(\'</span>\\n\\t\\t </div><button type="button" class="close" data-dismiss="alert">\\xc3\\x97</button>\\n\\t</div>\\n\', escape=False)\n    pass\nresponse.write(\'\\n\\n\', escape=False)\nif session.alerta_sucesso != None:\n    response.write(\'\\n\\t <div style="cursor: pointer; display: block;" id="noty_success" class="noty_bar noty_theme_default noty_layout_topLeft noty_success">\\n\\t\\t <div class="noty_message"><span class="noty_text">\', escape=False)\n    response.write(session.alerta_sucesso)\n    response.write(\'</span>\\n\\t\\t </div><button type="button" class="close" data-dismiss="alert">\\xc3\\x97</button>\\n\\t</div>\\n\\t\', escape=False)\n    session.alerta_sucesso=None\n    response.write(\'\\n\', escape=False)\n    pass\nresponse.write(\'\\n\\n\\n\\n\', escape=False)\nresponse.write(\'\\n\\t\\t\\t\\t\\t\\t</div>\\n\\n\\t\\t\\t\\t\\t\\t\\t\', escape=False)\nresponse.write(\'\\n\\n\', escape=False)\nresponse.write(\'\\n\\t\\t\\t\\t\\t\\t\\t\\t\', escape=False)\nresponse.write(\'\\n<br>\\n<div class="direita">\\n    \', escape=False)\nif editor == True:\n    response.write(\'\\n   <button type="button" class="btn btn-primary" onclick=location.href="\', escape=False)\n    response.write(url)\n    response.write(\'" >Adicionar</button>\\n    \', escape=False)\n    pass\nresponse.write(\'\\n</div>\\n<table class="tabela-forip">\\n    <thead>\\n        <tr>\\n            <th>Rota</th>\\n            <th>Tronco</th>\\n            <th>Prioridade</th>\\n            <th>Destino</th>\\n            <th>Exclui antes</th>\\n            <th>Adiciona antes</th>\\n            <th>Adiciona depois</th>\\n            <th>Empresa</th>\\n            <th>Tarifa\\xc3\\xa7\\xc3\\xa3o</th>\\n            <th>horario</th>\\n            <th>csp</th>\\n            <th></th>\\n        </tr>\\n    </thead>\\n    <tbody>\\n    \', escape=False)\nfor dado in rota:\n    response.write(\'\\n        <tr>\\n            <td>\', escape=False)\n    response.write(dado.rota)\n    response.write(\'</td>\\n            <td>\', escape=False)\n    response.write(dado.id_tronco)\n    response.write(\'</td>\\n            <td>\', escape=False)\n    response.write(dado.prioridade)\n    response.write(\'</td>\\n            <!--<td>\', escape=False)\n    response.write(dado.id_destino)\n    response.write(\'</td>-->\\n            <td>\\n                \', escape=False)\n    for item in dado.id_destino:\n        response.write(\'\\n                \', escape=False)\n        response.write(db(db.f_destinos.id == item).select(db.f_destinos.destino)[0].tipo_chamada)\n        response.write(\'<br>\\n                \', escape=False)\n        pass\n    response.write(\'\\n            </td>\\n            <td>\', escape=False)\n    response.write(dado.exclui_antes)\n    response.write(\'</td>\\n            <td>\', escape=False)\n    response.write(dado.adiciona_antes)\n    response.write(\'</td>\\n            <td>\', escape=False)\n    response.write(dado.adiciona_depois)\n    response.write(\'</td>\\n            <td>\\n                \', escape=False)\n    for item in dado.id_empresa:\n        response.write(\'\\n                \', escape=False)\n        response.write(db(db.f_empresa.id == item).select(db.f_empresa.empresa)[0].empresa)\n        response.write(\'<br>\\n                \', escape=False)\n        pass\n    response.write(\'\\n            </td>\\n            <td>\', escape=False)\n    response.write(dado.id_tarifacao)\n    response.write(\'</td>\\n            <td>\', escape=False)\n    response.write(dado.id_horario)\n    response.write(\'</td>\\n            <td>\', escape=False)\n    response.write(dado.add_csp)\n    response.write(\'</td>\\n            <td>\\n            \', escape=False)\n    if editor == True:\n        response.write(\'\\n                <a href="\', escape=False)\n        response.write(url)\n        response.write(\'?id_rota=\', escape=False)\n        response.write(dado.id)\n        response.write(\'">\\n                    <i class=" icon-edit"></i></a> &nbsp;&nbsp;\\n\\n                <a class="link" data-tabela="f_rotas" data-nome="\', escape=False)\n        response.write(dado.rota)\n        response.write(\'" data-value="\', escape=False)\n        response.write(dado.id)\n        response.write(\'" href="#">\\n                    <i class=" icon-trash"></i></a>\\n            \', escape=False)\n        pass\n    response.write(\'\\n            </td>\\n        </tr>\\n    \', escape=False)\n    pass\nresponse.write(\'\\n    </tbody>\\n</table>\\n<br><br>\\n\\n\\n\\n<script>\\nvar links = document.querySelectorAll(\\\'.link\\\');\\nfor (x in links) {\\n    links[x].onclick = function() { \\n    var data_attr = this.dataset;\\n    //alert(data_attr.value);\\n    var id   = data_attr.value;\\n    var nome = data_attr.nome;\\n    var tabela= data_attr.tabela;\\n    decisao = confirm("Tem certeza que deseja remover o item "+nome);\\n        if(decisao){\\n            location.href="\', escape=False)\nresponse.write(URL(a=\'admanager\', c=\'initial\', f=\'delete\'))\nresponse.write(\'?id_tab="+id+"&tabela="+tabela+";"\\n        }\\n    return false;\\n    }\\n}\\n</script>\\n\\n\', escape=False)\nresponse.write(\'\\n\\t\\t\\t\\t\\t\\t</div>\\t\\n\\t\\t\\t\\t\\t</div><!--/col-->\\n\\t\\t\\t\\t</div><!--/col-->\\n\\t\\t\\t\\t\\n\\t\\t\\t</div><!--/row-->\\n\\t\\t\\t</div><!-- end: Content -->\\n\\t\\t\\t\\t\\n\\t</div><!--/row-->\\t\\t\\t\\n\\t</div><!--/container-->\\n\\t\\n\\t\\n\\t<div class="modal fade" id="myModal">\\n\\t\\t<div class="modal-dialog">\\n\\t\\t\\t<div class="modal-content">\\n\\t\\t\\t\\t<div class="modal-header">\\n\\t\\t\\t\\t\\t<button type="button" class="close" data-dismiss="modal" aria-hidden="true">&times;</button>\\n\\t\\t\\t\\t\\t<h4 class="modal-title">Modal title</h4>\\n\\t\\t\\t\\t</div>\\n\\t\\t\\t\\t<div class="modal-body">\\n\\t\\t\\t\\t\\t<p>Here settings can be configured...</p>\\n\\t\\t\\t\\t</div>\\n\\t\\t\\t\\t<div class="modal-footer">\\n\\t\\t\\t\\t\\t<button type="button" class="btn btn-default" data-dismiss="modal">Close</button>\\n\\t\\t\\t\\t\\t<button type="button" class="btn btn-primary">Save changes</button>\\n\\t\\t\\t\\t</div>\\n\\t\\t\\t</div><!-- /.modal-content -->\\n\\t\\t</div><!-- /.modal-dialog -->\\n\\t</div><!-- /.modal -->\\n\\t\\n\\t<div class="clearfix"></div>\\n\\t\\n\\t<footer>\\n\\t\\t<p>\\n\\t\\t\\t<span style="text-align:left;float:left">&copy; 2014 <a href="http://forip.com.br/" alt="Bootstrap Themes">ForIP.com.br</a></span>\\n\\t\\t\\t<span class="hidden-phone" style="text-align:right;float:right">Powered by: <a href="http://bootstrapmaster.com/" alt="Bootstrap Admin Template">ForIP</a></span>\\n\\t\\t</p>\\n\\n\\t</footer>\\n\\t\\t\\n\\t<!-- start: JavaScript-->\\n\\t<!--[if !IE]>-->\\n\\n\\t\\t\\t<script src="\', escape=False)\nresponse.write(URL(a=\'admanager\', c=\'static\', f=\'js\'))\nresponse.write(\'/jquery-2.0.3.min.js"></script>\\n\\n\\t<!--<![endif]-->\\n\\n\\t<!--[if IE]>\\n\\t\\n\\t\\t<script src="\', escape=False)\nresponse.write(URL(a=\'admanager\', c=\'static\', f=\'js\'))\nresponse.write(\'/jquery-1.10.2.min.js"></script>\\n\\t\\n\\t<![endif]-->\\n\\n\\t<!--[if !IE]>-->\\n\\n\\t\\t<script type="text/javascript">\\n\\t\\t\\twindow.jQuery || document.write("<script src=\\\'\', escape=False)\nresponse.write(URL(a=\'admanager\', c=\'static\', f=\'js\'))\nresponse.write(\'/jquery-2.0.3.min.js\\\'>"+"<"+"/script>");\\n\\t\\t</script>\\n\\n\\t<!--<![endif]-->\\n\\n\\t<!--[if IE]>\\n\\t\\n\\t\\t<script type="text/javascript">\\n\\t \\twindow.jQuery || document.write("<script src=\\\'\', escape=False)\nresponse.write(URL(a=\'admanager\', c=\'static\', f=\'js\'))\nresponse.write(\'/jquery-1.10.2.min.js\\\'>"+"<"+"/script>");\\n\\t\\t</script>\\n\\t\\t\\n\\t<![endif]-->\\n\\t<script src="\', escape=False)\nresponse.write(URL(a=\'admanager\', c=\'static\', f=\'js\'))\nresponse.write(\'/jquery-migrate-1.2.1.min.js"></script>\\n\\t<script src="\', escape=False)\nresponse.write(URL(a=\'admanager\', c=\'static\', f=\'js\'))\nresponse.write(\'/bootstrap.min.js"></script>\\n\\t<!--<script src="\', escape=False)\nresponse.write(URL(a=\'admanager\', c=\'static\', f=\'js\'))\nresponse.write(\'/jquery.js"></script>-->\\t\\n\\t\\n\\t<!-- page scripts -->\\n\\t<script src="\', escape=False)\nresponse.write(URL(a=\'admanager\', c=\'static\', f=\'js\'))\nresponse.write(\'/jquery-ui-1.10.3.custom.min.js"></script>\\n\\t<script src="\', escape=False)\nresponse.write(URL(a=\'admanager\', c=\'static\', f=\'js\'))\nresponse.write(\'/jquery.ui.touch-punch.min.js"></script>\\n\\t<script src="\', escape=False)\nresponse.write(URL(a=\'admanager\', c=\'static\', f=\'js\'))\nresponse.write(\'/jquery.sparkline.min.js"></script>\\n\\t\\n\\t<!-- theme scripts -->\\n\\t<script src="\', escape=False)\nresponse.write(URL(a=\'admanager\', c=\'static\', f=\'js\'))\nresponse.write(\'/custom.min.js"></script>\\n\\t<script src="\', escape=False)\nresponse.write(URL(a=\'admanager\', c=\'static\', f=\'js\'))\nresponse.write(\'/core.min.js"></script>\\n\\t\\n\\t<!-- inline scripts related to this page -->\\n\\t<script src="\', escape=False)\nresponse.write(URL(a=\'admanager\', c=\'static\', f=\'js\'))\nresponse.write(\'/pages/ui-sliders-progress.js"></script>\\n\\t\\n\\t<!-- end: JavaScript-->\\n\\n\', escape=False)\nresponse.write(\'\\n\', escape=False)\nresponse.write(\'\\n\\t\\n</body>\\n</html>\', escape=False)'
p7
sS'snapshot'
p8
(dp9
S'exception'
p10
(dp11
S'__hash__'
p12
S"<method-wrapper '__hash__' of exceptions.AttributeError object>"
p13
sS'__setattr__'
p14
S"<method-wrapper '__setattr__' of exceptions.AttributeError object>"
p15
sS'__reduce_ex__'
p16
S'<built-in method __reduce_ex__ of exceptions.AttributeError object>'
p17
sS'__getslice__'
p18
S"<method-wrapper '__getslice__' of exceptions.AttributeError object>"
p19
sS'__getitem__'
p20
S"<method-wrapper '__getitem__' of exceptions.AttributeError object>"
p21
sS'__setstate__'
p22
S'<built-in method __setstate__ of exceptions.AttributeError object>'
p23
sS'args'
p24
S'("\'Row\' object has no attribute \'tipo_chamada\'",)'
p25
sS'__reduce__'
p26
S'<built-in method __reduce__ of exceptions.AttributeError object>'
p27
sS'__str__'
p28
S"<method-wrapper '__str__' of exceptions.AttributeError object>"
p29
sS'__format__'
p30
S'<built-in method __format__ of exceptions.AttributeError object>'
p31
sS'__getattribute__'
p32
S"<method-wrapper '__getattribute__' of exceptions.AttributeError object>"
p33
sS'__class__'
p34
S"<type 'exceptions.AttributeError'>"
p35
sS'__unicode__'
p36
S'<built-in method __unicode__ of exceptions.AttributeError object>'
p37
sS'__delattr__'
p38
S"<method-wrapper '__delattr__' of exceptions.AttributeError object>"
p39
sS'__subclasshook__'
p40
S'<built-in method __subclasshook__ of type object>'
p41
sS'__repr__'
p42
S"<method-wrapper '__repr__' of exceptions.AttributeError object>"
p43
sS'__dict__'
p44
S'{}'
p45
sS'__sizeof__'
p46
S'<built-in method __sizeof__ of exceptions.AttributeError object>'
p47
sS'__doc__'
p48
S"'Attribute not found.'"
p49
sS'__init__'
p50
S"<method-wrapper '__init__' of exceptions.AttributeError object>"
p51
sS'__new__'
p52
S'<built-in method __new__ of type object>'
p53
ssS'evalue'
p54
S"'Row' object has no attribute 'tipo_chamada'"
p55
sS'request'
p56
cgluon.html
XML_unpickle
p57
(S'ssS\x00\x00<div><table><tr><td style="font-weight:bold;vertical-align:top">ajax</td><td valign="top">:</td><td><div>False</div></td></tr><tr><td style="font-weight:bold;vertical-align:top">application</td><td valign="top">:</td><td><div>admanager</div></td></tr><tr><td style="font-weight:bold;vertical-align:top">args</td><td valign="top">:</td><td><div><table></table></div></td></tr><tr><td style="font-weight:bold;vertical-align:top">body</td><td valign="top">:</td><td><div>&lt;cStringIO.StringO object at 0x7f0830233ca8&gt;</div></td></tr><tr><td style="font-weight:bold;vertical-align:top">cid</td><td valign="top">:</td><td><div>None</div></td></tr><tr><td style="font-weight:bold;vertical-align:top">client</td><td valign="top">:</td><td><div>127.0.0.1</div></td></tr><tr><td style="font-weight:bold;vertical-align:top">controller</td><td valign="top">:</td><td><div>funcional</div></td></tr><tr><td style="font-weight:bold;vertical-align:top">cookies</td><td valign="top">:</td><td><div><table><tr><td style="font-weight:bold;vertical-align:top">SessionId</td><td valign="top">:</td><td><div>59615b62bcbba6c5<table><tr><td style="font-weight:bold;vertical-align:top">comment</td><td valign="top">:</td><td><div></div></td></tr><tr><td style="font-weight:bold;vertical-align:top">domain</td><td valign="top">:</td><td><div></div></td></tr><tr><td style="font-weight:bold;vertical-align:top">expires</td><td valign="top">:</td><td><div></div></td></tr><tr><td style="font-weight:bold;vertical-align:top">httponly</td><td valign="top">:</td><td><div></div></td></tr><tr><td style="font-weight:bold;vertical-align:top">max-age</td><td valign="top">:</td><td><div></div></td></tr><tr><td style="font-weight:bold;vertical-align:top">path</td><td valign="top">:</td><td><div></div></td></tr><tr><td style="font-weight:bold;vertical-align:top">secure</td><td valign="top">:</td><td><div></div></td></tr><tr><td style="font-weight:bold;vertical-align:top">version</td><td valign="top">:</td><td><div></div></td></tr></table></div></td></tr><tr><td style="font-weight:bold;vertical-align:top">session_id_admanager</td><td valign="top">:</td><td><div>127.0.0.1-fe3a16e3-42e3-456d-bd1b-75a619842a6e<table><tr><td style="font-weight:bold;vertical-align:top">comment</td><td valign="top">:</td><td><div></div></td></tr><tr><td style="font-weight:bold;vertical-align:top">domain</td><td valign="top">:</td><td><div></div></td></tr><tr><td style="font-weight:bold;vertical-align:top">expires</td><td valign="top">:</td><td><div></div></td></tr><tr><td style="font-weight:bold;vertical-align:top">httponly</td><td valign="top">:</td><td><div></div></td></tr><tr><td style="font-weight:bold;vertical-align:top">max-age</td><td valign="top">:</td><td><div></div></td></tr><tr><td style="font-weight:bold;vertical-align:top">path</td><td valign="top">:</td><td><div></div></td></tr><tr><td style="font-weight:bold;vertical-align:top">secure</td><td valign="top">:</td><td><div></div></td></tr><tr><td style="font-weight:bold;vertical-align:top">version</td><td valign="top">:</td><td><div></div></td></tr></table></div></td></tr><tr><td style="font-weight:bold;vertical-align:top">session_id_admin</td><td valign="top">:</td><td><div>127.0.0.1-664cd65c-1f0d-4328-b54c-4339a6e2377c<table><tr><td style="font-weight:bold;vertical-align:top">comment</td><td valign="top">:</td><td><div></div></td></tr><tr><td style="font-weight:bold;vertical-align:top">domain</td><td valign="top">:</td><td><div></div></td></tr><tr><td style="font-weight:bold;vertical-align:top">expires</td><td valign="top">:</td><td><div></div></td></tr><tr><td style="font-weight:bold;vertical-align:top">httponly</td><td valign="top">:</td><td><div></div></td></tr><tr><td style="font-weight:bold;vertical-align:top">max-age</td><td valign="top">:</td><td><div></div></td></tr><tr><td style="font-weight:bold;vertical-align:top">path</td><td valign="top">:</td><td><div></div></td></tr><tr><td style="font-weight:bold;vertical-align:top">secure</td><td valign="top">:</td><td><div></div></td></tr><tr><td style="font-weight:bold;vertical-align:top">version</td><td valign="top">:</td><td><div></div></td></tr></table></div></td></tr></table></div></td></tr><tr><td style="font-weight:bold;vertical-align:top">env</td><td valign="top">:</td><td><div><table><tr><td style="font-weight:bold;vertical-align:top">app_folders</td><td valign="top">:</td><td><div>set([&#x27;/home/fernando/web2py/applications/admanager/&#x27;])</div></td></tr><tr><td style="font-weight:bold;vertical-align:top">applications_parent</td><td valign="top">:</td><td><div>/home/fernando/web2py</div></td></tr><tr><td style="font-weight:bold;vertical-align:top">cmd_args</td><td valign="top">:</td><td><div><table></table></div></td></tr><tr><td style="font-weight:bold;vertical-align:top">cmd_options</td><td valign="top">:</td><td><div>&lt;Values at 0x7f083493fa70: {&#x27;verbose&#x27;: False, &#x27;ip&#x27;: &#x27;127.0.0.1&#x27;, &#x27;with_scheduler&#x27;: False, &#x27;ips&#x27;: [&#x27;127.0.1.1&#x27;], &#x27;shutdown_timeout&#x27;: 5, &#x27;taskbar&#x27;: False, &#x27;with_coverage&#x27;: False, &#x27;port&#x27;: 8000, &#x27;maxthreads&#x27;: None, &#x27;softcron&#x27;: False, &#x27;server_name&#x27;: &#x27;fernando-pc&#x27;, &#x27;bpython&#x27;: False, &#x27;nogui&#x27;: False, &#x27;pid_filename&#x27;: &#x27;httpserver.pid&#x27;, &#x27;extcron&#x27;: False, &#x27;runcron&#x27;: False, &#x27;run_system_tests&#x27;: False, &#x27;test&#x27;: None, &#x27;folder&#x27;: &#x27;/home/fernando/web2py&#x27;, &#x27;config&#x27;: &#x27;&#x27;, &#x27;minthreads&#x27;: None, &#x27;winservice&#x27;: &#x27;&#x27;, &#x27;shell&#x27;: None, &#x27;run&#x27;: &#x27;&#x27;, &#x27;log_filename&#x27;: &#x27;httpserver.log&#x27;, &#x27;debuglevel&#x27;: 30, &#x27;args&#x27;: [&#x27;&#x27;], &#x27;socket_timeout&#x27;: 5, &#x27;ssl_ca_certificate&#x27;: None, &#x27;scheduler&#x27;: None, &#x27;profiler_filename&#x27;: None, &#x27;ssl_private_key&#x27;: &#x27;&#x27;, &#x27;scheduler_groups&#x27;: None, &#x27;password&#x27;: &#x27;123456&#x27;, &#x27;request_queue_size&#x27;: 5, &#x27;ssl_certificate&#x27;: &#x27;&#x27;, &#x27;cronjob&#x27;: False, &#x27;numthreads&#x27;: None, &#x27;quiet&#x27;: False, &#x27;interfaces&#x27;: None, &#x27;import_models&#x27;: False, &#x27;timeout&#x27;: 10, &#x27;plain&#x27;: False, &#x27;nobanner&#x27;: False}&gt;</div></td></tr><tr><td style="font-weight:bold;vertical-align:top">db_sessions</td><td valign="top">:</td><td><div>set([])</div></td></tr><tr><td style="font-weight:bold;vertical-align:top">debugging</td><td valign="top">:</td><td><div>False</div></td></tr><tr><td style="font-weight:bold;vertical-align:top">gluon_parent</td><td valign="top">:</td><td><div>/home/fernando/web2py</div></td></tr><tr><td style="font-weight:bold;vertical-align:top">http_accept</td><td valign="top">:</td><td><div>text/html,application/xhtml+xml,application/xml;q=0.9,image/webp,*/*;q=0.8</div></td></tr><tr><td style="font-weight:bold;vertical-align:top">http_accept_encoding</td><td valign="top">:</td><td><div>gzip,deflate,sdch</div></td></tr><tr><td style="font-weight:bold;vertical-align:top">http_accept_language</td><td valign="top">:</td><td><div>pt-BR,pt;q=0.8,en-US;q=0.6,en;q=0.4</div></td></tr><tr><td style="font-weight:bold;vertical-align:top">http_connection</td><td valign="top">:</td><td><div>keep-alive</div></td></tr><tr><td style="font-weight:bold;vertical-align:top">http_cookie</td><td valign="top">:</td><td><div>SessionId=&quot;59615b62bcbba6c5&quot;; session_id_admin=127.0.0.1-664cd65c-1f0d-4328-b54c-4339a6e2377c; session_id_admanager=127.0.0.1-fe3a16e3-42e3-456d-bd1b-75a619842a6e</div></td></tr><tr><td style="font-weight:bold;vertical-align:top">http_host</td><td valign="top">:</td><td><div>127.0.0.1:8000</div></td></tr><tr><td style="font-weight:bold;vertical-align:top">http_referer</td><td valign="top">:</td><td><div>http://127.0.0.1:8000/admanager/funcional/f_troncos</div></td></tr><tr><td style="font-weight:bold;vertical-align:top">http_user_agent</td><td valign="top">:</td><td><div>Mozilla/5.0 (X11; Linux x86_64) AppleWebKit/537.36 (KHTML, like Gecko) Chrome/35.0.1916.114 Safari/537.36</div></td></tr><tr><td style="font-weight:bold;vertical-align:top">is_jython</td><td valign="top">:</td><td><div>False</div></td></tr><tr><td style="font-weight:bold;vertical-align:top">is_pypy</td><td valign="top">:</td><td><div>False</div></td></tr><tr><td style="font-weight:bold;vertical-align:top">local_hosts</td><td valign="top">:</td><td><div><table><tr><td><div>::1</div></td></tr><tr><td><div>127.0.1.1</div></td></tr><tr><td><div>fernando-pc</div></td></tr><tr><td><div>::ffff:127.0.0.1</div></td></tr><tr><td><div>127.0.0.1</div></td></tr></table></div></td></tr><tr><td style="font-weight:bold;vertical-align:top">path_info</td><td valign="top">:</td><td><div>/admanager/funcional/f_rotas</div></td></tr><tr><td style="font-weight:bold;vertical-align:top">query_string</td><td valign="top">:</td><td><div></div></td></tr><tr><td style="font-weight:bold;vertical-align:top">remote_addr</td><td valign="top">:</td><td><div>127.0.0.1</div></td></tr><tr><td style="font-weight:bold;vertical-align:top">remote_port</td><td valign="top">:</td><td><div>57161</div></td></tr><tr><td style="font-weight:bold;vertical-align:top">request_method</td><td valign="top">:</td><td><div>GET</div></td></tr><tr><td style="font-weight:bold;vertical-align:top">request_uri</td><td valign="top">:</td><td><div>/admanager/funcional/f_rotas</div></td></tr><tr><td style="font-weight:bold;vertical-align:top">script_name</td><td valign="top">:</td><td><div></div></td></tr><tr><td style="font-weight:bold;vertical-align:top">server_name</td><td valign="top">:</td><td><div>fernando-pc</div></td></tr><tr><td style="font-weight:bold;vertical-align:top">server_port</td><td valign="top">:</td><td><div>8000</div></td></tr><tr><td style="font-weight:bold;vertical-align:top">server_protocol</td><td valign="top">:</td><td><div>HTTP/1.1</div></td></tr><tr><td style="font-weight:bold;vertical-align:top">server_software</td><td valign="top">:</td><td><div>Rocket 1.2.6</div></td></tr><tr><td style="font-weight:bold;vertical-align:top">web2py_original_uri</td><td valign="top">:</td><td><div>/admanager/funcional/f_rotas</div></td></tr><tr><td style="font-weight:bold;vertical-align:top">web2py_path</td><td valign="top">:</td><td><div>/home/fernando/web2py</div></td></tr><tr><td style="font-weight:bold;vertical-align:top">web2py_version</td><td valign="top">:</td><td><div>2.5.1-stable+timestamp.2013.06.06.15.39.19</div></td></tr><tr><td style="font-weight:bold;vertical-align:top">wsgi_errors</td><td valign="top">:</td><td><div>&lt;open file &#x27;&lt;stderr&gt;&#x27;, mode &#x27;w&#x27; at 0x7f0838cad1e0&gt;</div></td></tr><tr><td style="font-weight:bold;vertical-align:top">wsgi_file_wrapper</td><td valign="top">:</td><td><div>&lt;class wsgiref.util.FileWrapper at 0x7f08349bc120&gt;</div></td></tr><tr><td style="font-weight:bold;vertical-align:top">wsgi_input</td><td valign="top">:</td><td><div>&lt;socket._fileobject object at 0x7f0830211c50&gt;</div></td></tr><tr><td style="font-weight:bold;vertical-align:top">wsgi_multiprocess</td><td valign="top">:</td><td><div>False</div></td></tr><tr><td style="font-weight:bold;vertical-align:top">wsgi_multithread</td><td valign="top">:</td><td><div>True</div></td></tr><tr><td style="font-weight:bold;vertical-align:top">wsgi_run_once</td><td valign="top">:</td><td><div>False</div></td></tr><tr><td style="font-weight:bold;vertical-align:top">wsgi_url_scheme</td><td valign="top">:</td><td><div>http</div></td></tr><tr><td style="font-weight:bold;vertical-align:top">wsgi_version</td><td valign="top">:</td><td><div><table><tr><td><div>1</div></td></tr><tr><td><div>0</div></td></tr></table></div></td></tr></table></div></td></tr><tr><td style="font-weight:bold;vertical-align:top">extension</td><td valign="top">:</td><td><div>html</div></td></tr><tr><td style="font-weight:bold;vertical-align:top">folder</td><td valign="top">:</td><td><div>/home/fernando/web2py/applications/admanager/</div></td></tr><tr><td style="font-weight:bold;vertical-align:top">function</td><td valign="top">:</td><td><div>f_rotas</div></td></tr><tr><td style="font-weight:bold;vertical-align:top">get_vars</td><td valign="top">:</td><td><div><table></table></div></td></tr><tr><td style="font-weight:bold;vertical-align:top">global_settings</td><td valign="top">:</td><td><div><table><tr><td style="font-weight:bold;vertical-align:top">app_folders</td><td valign="top">:</td><td><div>set([&#x27;/home/fernando/web2py/applications/admanager/&#x27;])</div></td></tr><tr><td style="font-weight:bold;vertical-align:top">applications_parent</td><td valign="top">:</td><td><div>/home/fernando/web2py</div></td></tr><tr><td style="font-weight:bold;vertical-align:top">cmd_args</td><td valign="top">:</td><td><div><table></table></div></td></tr><tr><td style="font-weight:bold;vertical-align:top">cmd_options</td><td valign="top">:</td><td><div>&lt;Values at 0x7f083493fa70: {&#x27;verbose&#x27;: False, &#x27;ip&#x27;: &#x27;127.0.0.1&#x27;, &#x27;with_scheduler&#x27;: False, &#x27;ips&#x27;: [&#x27;127.0.1.1&#x27;], &#x27;shutdown_timeout&#x27;: 5, &#x27;taskbar&#x27;: False, &#x27;with_coverage&#x27;: False, &#x27;port&#x27;: 8000, &#x27;maxthreads&#x27;: None, &#x27;softcron&#x27;: False, &#x27;server_name&#x27;: &#x27;fernando-pc&#x27;, &#x27;bpython&#x27;: False, &#x27;nogui&#x27;: False, &#x27;pid_filename&#x27;: &#x27;httpserver.pid&#x27;, &#x27;extcron&#x27;: False, &#x27;runcron&#x27;: False, &#x27;run_system_tests&#x27;: False, &#x27;test&#x27;: None, &#x27;folder&#x27;: &#x27;/home/fernando/web2py&#x27;, &#x27;config&#x27;: &#x27;&#x27;, &#x27;minthreads&#x27;: None, &#x27;winservice&#x27;: &#x27;&#x27;, &#x27;shell&#x27;: None, &#x27;run&#x27;: &#x27;&#x27;, &#x27;log_filename&#x27;: &#x27;httpserver.log&#x27;, &#x27;debuglevel&#x27;: 30, &#x27;args&#x27;: [&#x27;&#x27;], &#x27;socket_timeout&#x27;: 5, &#x27;ssl_ca_certificate&#x27;: None, &#x27;scheduler&#x27;: None, &#x27;profiler_filename&#x27;: None, &#x27;ssl_private_key&#x27;: &#x27;&#x27;, &#x27;scheduler_groups&#x27;: None, &#x27;password&#x27;: &#x27;123456&#x27;, &#x27;request_queue_size&#x27;: 5, &#x27;ssl_certificate&#x27;: &#x27;&#x27;, &#x27;cronjob&#x27;: False, &#x27;numthreads&#x27;: None, &#x27;quiet&#x27;: False, &#x27;interfaces&#x27;: None, &#x27;import_models&#x27;: False, &#x27;timeout&#x27;: 10, &#x27;plain&#x27;: False, &#x27;nobanner&#x27;: False}&gt;</div></td></tr><tr><td style="font-weight:bold;vertical-align:top">db_sessions</td><td valign="top">:</td><td><div>set([])</div></td></tr><tr><td style="font-weight:bold;vertical-align:top">debugging</td><td valign="top">:</td><td><div>False</div></td></tr><tr><td style="font-weight:bold;vertical-align:top">gluon_parent</td><td valign="top">:</td><td><div>/home/fernando/web2py</div></td></tr><tr><td style="font-weight:bold;vertical-align:top">is_jython</td><td valign="top">:</td><td><div>False</div></td></tr><tr><td style="font-weight:bold;vertical-align:top">is_pypy</td><td valign="top">:</td><td><div>False</div></td></tr><tr><td style="font-weight:bold;vertical-align:top">local_hosts</td><td valign="top">:</td><td><div><table><tr><td><div>::1</div></td></tr><tr><td><div>127.0.1.1</div></td></tr><tr><td><div>fernando-pc</div></td></tr><tr><td><div>::ffff:127.0.0.1</div></td></tr><tr><td><div>127.0.0.1</div></td></tr></table></div></td></tr><tr><td style="font-weight:bold;vertical-align:top">web2py_version</td><td valign="top">:</td><td><div>2.5.1-stable+timestamp.2013.06.06.15.39.19</div></td></tr></table></div></td></tr><tr><td style="font-weight:bold;vertical-align:top">is_https</td><td valign="top">:</td><td><div>False</div></td></tr><tr><td style="font-weight:bold;vertical-align:top">is_local</td><td valign="top">:</td><td><div>True</div></td></tr><tr><td style="font-weight:bold;vertical-align:top">is_restful</td><td valign="top">:</td><td><div>False</div></td></tr><tr><td style="font-weight:bold;vertical-align:top">now</td><td valign="top">:</td><td><div>datetime.datetime(2014, 6, 20, 15, 4, 45, 102101)</div></td></tr><tr><td style="font-weight:bold;vertical-align:top">post_vars</td><td valign="top">:</td><td><div><table></table></div></td></tr><tr><td style="font-weight:bold;vertical-align:top">url</td><td valign="top">:</td><td><div>/admanager/funcional/f_rotas</div></td></tr><tr><td style="font-weight:bold;vertical-align:top">utcnow</td><td valign="top">:</td><td><div>datetime.datetime(2014, 6, 20, 18, 4, 45, 102125)</div></td></tr><tr><td style="font-weight:bold;vertical-align:top">uuid</td><td valign="top">:</td><td><div>admanager/127.0.0.1.2014-06-20.15-04-45.165efb3e-cbaf-4a44-909b-1ed334007262</div></td></tr><tr><td style="font-weight:bold;vertical-align:top">vars</td><td valign="top">:</td><td><div><table></table></div></td></tr><tr><td style="font-weight:bold;vertical-align:top">wsgi</td><td valign="top">:</td><td><div><table><tr><td style="font-weight:bold;vertical-align:top">environ</td><td valign="top">:</td><td><div><table><tr><td style="font-weight:bold;vertical-align:top">HTTP_ACCEPT</td><td valign="top">:</td><td><div>text/html,application/xhtml+xml,application/xml;q=0.9,image/webp,*/*;q=0.8</div></td></tr><tr><td style="font-weight:bold;vertical-align:top">HTTP_ACCEPT_ENCODING</td><td valign="top">:</td><td><div>gzip,deflate,sdch</div></td></tr><tr><td style="font-weight:bold;vertical-align:top">HTTP_ACCEPT_LANGUAGE</td><td valign="top">:</td><td><div>pt-BR,pt;q=0.8,en-US;q=0.6,en;q=0.4</div></td></tr><tr><td style="font-weight:bold;vertical-align:top">HTTP_CONNECTION</td><td valign="top">:</td><td><div>keep-alive</div></td></tr><tr><td style="font-weight:bold;vertical-align:top">HTTP_COOKIE</td><td valign="top">:</td><td><div>SessionId=&quot;59615b62bcbba6c5&quot;; session_id_admin=127.0.0.1-664cd65c-1f0d-4328-b54c-4339a6e2377c; session_id_admanager=127.0.0.1-fe3a16e3-42e3-456d-bd1b-75a619842a6e</div></td></tr><tr><td style="font-weight:bold;vertical-align:top">HTTP_HOST</td><td valign="top">:</td><td><div>127.0.0.1:8000</div></td></tr><tr><td style="font-weight:bold;vertical-align:top">HTTP_REFERER</td><td valign="top">:</td><td><div>http://127.0.0.1:8000/admanager/funcional/f_troncos</div></td></tr><tr><td style="font-weight:bold;vertical-align:top">HTTP_USER_AGENT</td><td valign="top">:</td><td><div>Mozilla/5.0 (X11; Linux x86_64) AppleWebKit/537.36 (KHTML, like Gecko) Chrome/35.0.1916.114 Safari/537.36</div></td></tr><tr><td style="font-weight:bold;vertical-align:top">PATH_INFO</td><td valign="top">:</td><td><div>/admanager/funcional/f_rotas</div></td></tr><tr><td style="font-weight:bold;vertical-align:top">QUERY_STRING</td><td valign="top">:</td><td><div></div></td></tr><tr><td style="font-weight:bold;vertical-align:top">REMOTE_ADDR</td><td valign="top">:</td><td><div>127.0.0.1</div></td></tr><tr><td style="font-weight:bold;vertical-align:top">REMOTE_PORT</td><td valign="top">:</td><td><div>57161</div></td></tr><tr><td style="font-weight:bold;vertical-align:top">REQUEST_METHOD</td><td valign="top">:</td><td><div>GET</div></td></tr><tr><td style="font-weight:bold;vertical-align:top">REQUEST_URI</td><td valign="top">:</td><td><div>/admanager/funcional/f_rotas</div></td></tr><tr><td style="font-weight:bold;vertical-align:top">SCRIPT_NAME</td><td valign="top">:</td><td><div></div></td></tr><tr><td style="font-weight:bold;vertical-align:top">SERVER_NAME</td><td valign="top">:</td><td><div>fernando-pc</div></td></tr><tr><td style="font-weight:bold;vertical-align:top">SERVER_PORT</td><td valign="top">:</td><td><div>8000</div></td></tr><tr><td style="font-weight:bold;vertical-align:top">SERVER_PROTOCOL</td><td valign="top">:</td><td><div>HTTP/1.1</div></td></tr><tr><td style="font-weight:bold;vertical-align:top">SERVER_SOFTWARE</td><td valign="top">:</td><td><div>Rocket 1.2.6</div></td></tr><tr><td style="font-weight:bold;vertical-align:top">WEB2PY_ORIGINAL_URI</td><td valign="top">:</td><td><div>/admanager/funcional/f_rotas</div></td></tr><tr><td style="font-weight:bold;vertical-align:top">wsgi.errors</td><td valign="top">:</td><td><div>&lt;open file &#x27;&lt;stderr&gt;&#x27;, mode &#x27;w&#x27; at 0x7f0838cad1e0&gt;</div></td></tr><tr><td style="font-weight:bold;vertical-align:top">wsgi.file_wrapper</td><td valign="top">:</td><td><div>&lt;class wsgiref.util.FileWrapper at 0x7f08349bc120&gt;</div></td></tr><tr><td style="font-weight:bold;vertical-align:top">wsgi.input</td><td valign="top">:</td><td><div>&lt;cStringIO.StringO object at 0x7f0830233ca8&gt;</div></td></tr><tr><td style="font-weight:bold;vertical-align:top">wsgi.multiprocess</td><td valign="top">:</td><td><div>False</div></td></tr><tr><td style="font-weight:bold;vertical-align:top">wsgi.multithread</td><td valign="top">:</td><td><div>True</div></td></tr><tr><td style="font-weight:bold;vertical-align:top">wsgi.run_once</td><td valign="top">:</td><td><div>False</div></td></tr><tr><td style="font-weight:bold;vertical-align:top">wsgi.url_scheme</td><td valign="top">:</td><td><div>http</div></td></tr><tr><td style="font-weight:bold;vertical-align:top">wsgi.version</td><td valign="top">:</td><td><div>1</div></td></tr></table></div></td></tr></table></div></td></tr></table></div>'
tRp58
sS'frames'
p59
(lp60
(dp61
S'file'
p62
S'/home/fernando/web2py/gluon/restricted.py'
p63
sS'dump'
p64
(dp65
S'environment'
p66
S"{'A': <class 'gluon.html.A'>, 'ANY_OF': <class 'gluon.validators.ANY_OF'>, 'Auth': <class 'gluon.tools.Auth'>, 'B': <class 'gluon.html.B'>, 'BEAUTIFY': <class 'gluon.html.BEAUTIFY'>, 'BODY': <class 'gluon.html.BODY'>, 'BR': <class 'gluon.html.BR'>, 'BUTTON': <class 'gluon.html.BUTTON'>, 'CAT': <class 'gluon.html.CAT'>, 'CENTER': <class 'gluon.html.CENTER'>, ...}"
p67
sS'ccode'
p68
S'<code object <module> at 0x7f08303b2bb0, file "/...manager/views/funcional/show_rotas.html", line 1>'
p69
ssS'lnum'
p70
I212
sS'lines'
p71
(dp72
I207
S'    try:'
p73
sI208
S'        if isinstance(code, types.CodeType):'
p74
sI209
S'            ccode = code'
p75
sI210
S'        else:'
p76
sI211
S'            ccode = compile2(code, layer)'
p77
sI212
S'        exec ccode in environment'
p78
sI213
S'    except HTTP:'
p79
sI214
S'        raise'
p80
sI215
S'    except RestrictedError:'
p81
sI216
S'        # do not encapsulate (obfuscate) the original RestrictedError'
p82
ssS'call'
p83
S'(code=\'response.write(\\\'<!DOCTYPE html>\\\\n<html lang="pt-...nse.write(\\\'\\\\n\\\\t\\\\n</body>\\\\n</html>\\\', escape=False)\', environment={\'A\': <class \'gluon.html.A\'>, \'ANY_OF\': <class \'gluon.validators.ANY_OF\'>, \'Auth\': <class \'gluon.tools.Auth\'>, \'B\': <class \'gluon.html.B\'>, \'BEAUTIFY\': <class \'gluon.html.BEAUTIFY\'>, \'BODY\': <class \'gluon.html.BODY\'>, \'BR\': <class \'gluon.html.BR\'>, \'BUTTON\': <class \'gluon.html.BUTTON\'>, \'CAT\': <class \'gluon.html.CAT\'>, \'CENTER\': <class \'gluon.html.CENTER\'>, ...}, layer=\'/home/fernando/web2py/applications/admanager/views/funcional/show_rotas.html\')'
p84
sS'func'
p85
S'restricted'
p86
sa(dp87
g62
S'/home/fernando/web2py/applications/admanager/views/funcional/show_rotas.html'
p88
sg64
(dp89
sg70
I131
sg71
(dp90
I128
S"    response.write('</td>-->\\n            <td>\\n                ', escape=False)"
p91
sI129
S'    for item in dado.id_destino:'
p92
sI130
S"        response.write('\\n                ', escape=False)"
p93
sI131
S'        response.write(db(db.f_destinos.id == item).select(db.f_destinos.destino)[0].tipo_chamada)'
p94
sI132
S"        response.write('<br>\\n                ', escape=False)"
p95
sI133
S'        pass'
p96
sI134
S"    response.write('\\n            </td>\\n            <td>', escape=False)"
p97
sI135
S'    response.write(dado.exclui_antes)'
p98
sI136
S"    response.write('</td>\\n            <td>', escape=False)"
p99
sI137
S'    response.write(dado.adiciona_antes)'
p100
sI138
S"    response.write('</td>\\n            <td>', escape=False)"
p101
sI139
S'    response.write(dado.adiciona_depois)'
p102
sI140
S"    response.write('</td>\\n            <td>\\n                ', escape=False)"
p103
sI141
S'    for item in dado.id_empresa:'
p104
sI122
S"    response.write('</td>\\n            <td>', escape=False)"
p105
sI123
S'    response.write(dado.id_tronco)'
p106
sI124
S"    response.write('</td>\\n            <td>', escape=False)"
p107
sI125
S'    response.write(dado.prioridade)'
p108
sI126
S"    response.write('</td>\\n            <!--<td>', escape=False)"
p109
sI127
S'    response.write(dado.id_destino)'
p110
ssg83
S'()'
p111
sg85
S'<module>'
p112
sasS'pyver'
p113
S'Python 2.7.6: /usr/bin/python (prefix: /usr)'
p114
sS'session'
p115
g57
(S's[\x08\x00\x00<div><table><tr><td style="font-weight:bold;vertical-align:top">auth</td><td valign="top">:</td><td><div><table><tr><td style="font-weight:bold;vertical-align:top">expiration</td><td valign="top">:</td><td><div>3600</div></td></tr><tr><td style="font-weight:bold;vertical-align:top">hmac_key</td><td valign="top">:</td><td><div>9faf29fb-6da1-43d6-bfb3-5cf82163e268</div></td></tr><tr><td style="font-weight:bold;vertical-align:top">last_visit</td><td valign="top">:</td><td><div>datetime.datetime(2014, 6, 20, 15, 4, 43, 382751)</div></td></tr><tr><td style="font-weight:bold;vertical-align:top">remember</td><td valign="top">:</td><td><div>False</div></td></tr><tr><td style="font-weight:bold;vertical-align:top">user</td><td valign="top">:</td><td><div><table><tr><td style="font-weight:bold;vertical-align:top">email</td><td valign="top">:</td><td><div>root@forip.com.br</div></td></tr><tr><td style="font-weight:bold;vertical-align:top">first_name</td><td valign="top">:</td><td><div>root</div></td></tr><tr><td style="font-weight:bold;vertical-align:top">id</td><td valign="top">:</td><td><div>1L</div></td></tr><tr><td style="font-weight:bold;vertical-align:top">last_name</td><td valign="top">:</td><td><div>root</div></td></tr><tr><td style="font-weight:bold;vertical-align:top">ramal</td><td valign="top">:</td><td><div>0000</div></td></tr><tr><td style="font-weight:bold;vertical-align:top">registration_id</td><td valign="top">:</td><td><div></div></td></tr><tr><td style="font-weight:bold;vertical-align:top">registration_key</td><td valign="top">:</td><td><div></div></td></tr><tr><td style="font-weight:bold;vertical-align:top">reset_password_key</td><td valign="top">:</td><td><div></div></td></tr></table></div></td></tr><tr><td style="font-weight:bold;vertical-align:top">user_groups</td><td valign="top">:</td><td><div><table><tr><td style="font-weight:bold;vertical-align:top">1</td><td valign="top">:</td><td><div>administrador</div></td></tr></table></div></td></tr></table></div></td></tr><tr><td style="font-weight:bold;vertical-align:top">flash</td><td valign="top">:</td><td><div>None</div></td></tr></table></div>'
tRp116
sS'etype'
p117
S"<type 'exceptions.AttributeError'>"
p118
sS'date'
p119
S'Fri Jun 20 15:04:45 2014'
p120
sS'response'
p121
g57
(S's\xed\x12\x00\x00<div><table><tr><td style="font-weight:bold;vertical-align:top">body</td><td valign="top">:</td><td><div>&lt;cStringIO.StringO object at 0x7f08301cb618&gt;</div></td></tr><tr><td style="font-weight:bold;vertical-align:top">cookies</td><td valign="top">:</td><td><div><table><tr><td style="font-weight:bold;vertical-align:top">session_id_admanager</td><td valign="top">:</td><td><div>127.0.0.1-fe3a16e3-42e3-456d-bd1b-75a619842a6e<table><tr><td style="font-weight:bold;vertical-align:top">comment</td><td valign="top">:</td><td><div></div></td></tr><tr><td style="font-weight:bold;vertical-align:top">domain</td><td valign="top">:</td><td><div></div></td></tr><tr><td style="font-weight:bold;vertical-align:top">expires</td><td valign="top">:</td><td><div></div></td></tr><tr><td style="font-weight:bold;vertical-align:top">httponly</td><td valign="top">:</td><td><div></div></td></tr><tr><td style="font-weight:bold;vertical-align:top">max-age</td><td valign="top">:</td><td><div></div></td></tr><tr><td style="font-weight:bold;vertical-align:top">path</td><td valign="top">:</td><td><div>/</div></td></tr><tr><td style="font-weight:bold;vertical-align:top">secure</td><td valign="top">:</td><td><div></div></td></tr><tr><td style="font-weight:bold;vertical-align:top">version</td><td valign="top">:</td><td><div></div></td></tr></table></div></td></tr></table></div></td></tr><tr><td style="font-weight:bold;vertical-align:top">delimiters</td><td valign="top">:</td><td><div><table><tr><td><div>{{</div></td></tr><tr><td><div>}}</div></td></tr></table></div></td></tr><tr><td style="font-weight:bold;vertical-align:top">files</td><td valign="top">:</td><td><div><table></table></div></td></tr><tr><td style="font-weight:bold;vertical-align:top">flash</td><td valign="top">:</td><td><div></div></td></tr><tr><td style="font-weight:bold;vertical-align:top">generic_patterns</td><td valign="top">:</td><td><div><table><tr><td><div>*</div></td></tr></table></div></td></tr><tr><td style="font-weight:bold;vertical-align:top">headers</td><td valign="top">:</td><td><div><table><tr><td style="font-weight:bold;vertical-align:top">X-Powered-By</td><td valign="top">:</td><td><div>web2py</div></td></tr></table></div></td></tr><tr><td style="font-weight:bold;vertical-align:top">menu</td><td valign="top">:</td><td><div><table></table></div></td></tr><tr><td style="font-weight:bold;vertical-align:top">meta</td><td valign="top">:</td><td><div><table><tr><td style="font-weight:bold;vertical-align:top">keywords</td><td valign="top">:</td><td><div>chave, outra, e outra</div></td></tr></table></div></td></tr><tr><td style="font-weight:bold;vertical-align:top">models_to_run</td><td valign="top">:</td><td><div><table><tr><td><div>^\\w+\\.py$</div></td></tr><tr><td><div>^funcional/\\w+\\.py$</div></td></tr><tr><td><div>^funcional/f_rotas/\\w+\\.py$</div></td></tr></table></div></td></tr><tr><td style="font-weight:bold;vertical-align:top">postprocessing</td><td valign="top">:</td><td><div><table></table></div></td></tr><tr><td style="font-weight:bold;vertical-align:top">session_cookie_expires</td><td valign="top">:</td><td><div>None</div></td></tr><tr><td style="font-weight:bold;vertical-align:top">session_data_name</td><td valign="top">:</td><td><div>session_data_admanager</div></td></tr><tr><td style="font-weight:bold;vertical-align:top">session_file</td><td valign="top">:</td><td><div>&lt;open file &#x27;/home/fernando/web2py/applications/admanager/sessions/127.0.0.1-fe3a16e3-42e3-456d-bd1b-75a619842a6e&#x27;, mode &#x27;rb+&#x27; at 0x7f0830279300&gt;</div></td></tr><tr><td style="font-weight:bold;vertical-align:top">session_filename</td><td valign="top">:</td><td><div>/home/fernando/web2py/applications/admanager/sessions/127.0.0.1-fe3a16e3-42e3-456d-bd1b-75a619842a6e</div></td></tr><tr><td style="font-weight:bold;vertical-align:top">session_id</td><td valign="top">:</td><td><div>127.0.0.1-fe3a16e3-42e3-456d-bd1b-75a619842a6e</div></td></tr><tr><td style="font-weight:bold;vertical-align:top">session_id_name</td><td valign="top">:</td><td><div>session_id_admanager</div></td></tr><tr><td style="font-weight:bold;vertical-align:top">session_locked</td><td valign="top">:</td><td><div>True</div></td></tr><tr><td style="font-weight:bold;vertical-align:top">session_new</td><td valign="top">:</td><td><div>False</div></td></tr><tr><td style="font-weight:bold;vertical-align:top">session_storage_type</td><td valign="top">:</td><td><div>file</div></td></tr><tr><td style="font-weight:bold;vertical-align:top">status</td><td valign="top">:</td><td><div>200</div></td></tr><tr><td style="font-weight:bold;vertical-align:top">title</td><td valign="top">:</td><td><div>Rotas</div></td></tr><tr><td style="font-weight:bold;vertical-align:top">view</td><td valign="top">:</td><td><div>funcional/show_rotas.html</div></td></tr></table></div>'
tRp122
sS'locals'
p123
(dp124
S'OBJECT'
p125
S"<class 'gluon.html.OBJECT'>"
p126
sS'SQLDB'
p127
S"<class 'gluon.dal.DAL'>"
p128
sg115
S"<Storage {'_auth_next': None, 'flash': None, 'au...login]': '15c17acb-f2d1-4f38-87f2-d4a312304a93'}>"
p129
sS'LINK'
p130
S"<class 'gluon.html.LINK'>"
p131
sS'BR'
p132
S"<class 'gluon.html.BR'>"
p133
sS'local_import'
p134
S'<function <lambda>>'
p135
sS'OPTGROUP'
p136
S"<class 'gluon.html.OPTGROUP'>"
p137
sS'query'
p138
S'<Query (f_submenu.menu_ref = 12)>'
p139
sS'__package__'
p140
S'None'
p141
sS'PRE'
p142
S"<class 'gluon.html.PRE'>"
p143
sS'IS_INT_IN_RANGE'
p144
S"<class 'gluon.validators.IS_INT_IN_RANGE'>"
p145
sS'IS_LOWER'
p146
S"<class 'gluon.validators.IS_LOWER'>"
p147
sS'IS_STRONG'
p148
S"<class 'gluon.validators.IS_STRONG'>"
p149
sS'menu'
p150
S'<Rows (12)>'
p151
sS'cache'
p152
S'<gluon.cache.Cache object>'
p153
sS'IS_IN_DB'
p154
S"<class 'gluon.validators.IS_IN_DB'>"
p155
sS'TAG'
p156
S'<gluon.html.__TAG__ object>'
p157
sS'SQLField'
p158
S"<class 'gluon.dal.Field'>"
p159
sS'mail'
p160
S'<gluon.tools.Mail object>'
p161
sS'logger'
p162
S'<logging.Logger object>'
p163
sS'BODY'
p164
S"<class 'gluon.html.BODY'>"
p165
sS'IS_DATE_IN_RANGE'
p166
S"<class 'gluon.validators.IS_DATE_IN_RANGE'>"
p167
sS'IFRAME'
p168
S"<class 'gluon.html.IFRAME'>"
p169
sS'URL'
p170
S'<function URL>'
p171
sS'config'
p172
S"<Storage {'mail': <Storage {}>, 'db': <Storage {...r_dev', 'pool_size': 10}>, 'auth': <Storage {}>}>"
p173
sS'__file__'
p174
S"'/home/fernando/web2py/applications/admanager/views/funcional/show_rotas.html'"
p175
sS'db'
p176
S'<DAL uri="postgres:pg8000:******@127.0.0.1/admanager_dev">'
p177
sS'auth'
p178
S'<gluon.tools.Auth object>'
p179
sS'P'
S"<class 'gluon.html.P'>"
p180
sS'TFOOT'
p181
S"<class 'gluon.html.TFOOT'>"
p182
sS'XHTML'
p183
S"<class 'gluon.html.XHTML'>"
p184
sS'datetime'
p185
S"<module 'datetime' from '/usr/lib/python2.7/lib-dynload/datetime.x86_64-linux-gnu.so'>"
p186
sS'ON'
p187
S'True'
p188
sS'OL'
p189
S"<class 'gluon.html.OL'>"
p190
sS'TEXTAREA'
p191
S"<class 'gluon.html.TEXTAREA'>"
p192
sS'MENU'
p193
S"<class 'gluon.html.MENU'>"
p194
sS'item'
p195
S'3L'
p196
sS'rota'
p197
S'<Rows (2)>'
p198
sS'EM'
p199
S"<class 'gluon.html.EM'>"
p200
sS'CODE'
p201
S"<class 'gluon.html.CODE'>"
p202
sS'HTTP'
p203
S"<class 'gluon.http.HTTP'>"
p204
sS'HR'
p205
S"<class 'gluon.html.HR'>"
p206
sS'IS_DATETIME'
p207
S"<class 'gluon.validators.IS_DATETIME'>"
p208
sS'Storage'
p209
S"<class 'gluon.storage.Storage'>"
p210
sS'STYLE'
p211
S"<class 'gluon.html.STYLE'>"
p212
sS'LABEL'
p213
S"<class 'gluon.html.LABEL'>"
p214
sS'CLEANUP'
p215
S"<class 'gluon.validators.CLEANUP'>"
p216
sS'SELECT'
p217
S"<class 'gluon.html.SELECT'>"
p218
sS'CENTER'
p219
S"<class 'gluon.html.CENTER'>"
p220
sS'Auth'
p221
S"<class 'gluon.tools.Auth'>"
p222
sS'__builtins__'
p223
S"{'ArithmeticError': <type 'exceptions.ArithmeticError'>, 'AssertionError': <type 'exceptions.AssertionError'>, 'AttributeError': <type 'exceptions.AttributeError'>, 'BaseException': <type 'exceptions.BaseException'>, 'BufferError': <type 'exceptions.BufferError'>, 'BytesWarning': <type 'exceptions.BytesWarning'>, 'DeprecationWarning': <type 'exceptions.DeprecationWarning'>, 'EOFError': <type 'exceptions.EOFError'>, 'Ellipsis': Ellipsis, 'EnvironmentError': <type 'exceptions.EnvironmentError'>, ...}"
p224
sS'HTML'
p225
S"<class 'gluon.html.HTML'>"
p226
sS'SQLFORM'
p227
S"<class 'gluon.sqlhtml.SQLFORM'>"
p228
sS'LOAD'
p229
S'<function LOAD>'
p230
sS'redirect'
p231
S'<function redirect>'
p232
sS'FIELDSET'
p233
S"<class 'gluon.html.FIELDSET'>"
p234
sS'IS_EQUAL_TO'
p235
S"<class 'gluon.validators.IS_EQUAL_TO'>"
p236
sS'permissao'
p237
S'<function permissao>'
p238
sS'embed64'
p239
S'<function embed64>'
p240
sS'IS_LIST_OF'
p241
S"<class 'gluon.validators.IS_LIST_OF'>"
p242
sS'codecs'
p243
S"['all', 'ulaw', 'alaw', 'g729', 'gsm']"
p244
sS'INPUT'
p245
S"<class 'gluon.html.INPUT'>"
p246
sS'EMBED'
p247
S"<class 'gluon.html.EMBED'>"
p248
sS'IS_IMAGE'
p249
S"<class 'gluon.validators.IS_IMAGE'>"
p250
sS'logging'
p251
S"<module 'logging' from '/usr/lib/python2.7/logging/__init__.pyc'>"
p252
sS'H2'
p253
S"<class 'gluon.html.H2'>"
p254
sS'H3'
p255
S"<class 'gluon.html.H3'>"
p256
sS'BUTTON'
p257
S"<class 'gluon.html.BUTTON'>"
p258
sS'H1'
p259
S"<class 'gluon.html.H1'>"
p260
sS'H6'
p261
S"<class 'gluon.html.H6'>"
p262
sS'H4'
p263
S"<class 'gluon.html.H4'>"
p264
sS'H5'
p265
S"<class 'gluon.html.H5'>"
p266
sS'UL'
p267
S"<class 'gluon.html.UL'>"
p268
sS'IS_UPPER'
p269
S"<class 'gluon.validators.IS_UPPER'>"
p270
sS'xmlescape'
p271
S'<function xmlescape>'
p272
sS'IS_TIME'
p273
S"<class 'gluon.validators.IS_TIME'>"
p274
sS'OPTION'
p275
S"<class 'gluon.html.OPTION'>"
p276
sS'TITLE'
p277
S"<class 'gluon.html.TITLE'>"
p278
sS'CRYPT'
p279
S"<class 'gluon.validators.CRYPT'>"
p280
sS'IS_EMPTY_OR'
p281
S"<class 'gluon.validators.IS_EMPTY_OR'>"
p282
sS'MARKMIN'
p283
S"<class 'gluon.html.MARKMIN'>"
p284
sS'notifica'
p285
S'<function notifica>'
p286
sS'STRONG'
p287
S"<class 'gluon.html.STRONG'>"
p288
sS'COL'
p289
S"<class 'gluon.html.COL'>"
p290
sS'SCRIPT'
p291
S"<class 'gluon.html.SCRIPT'>"
p292
sS'editor'
p293
g188
sS'TABLE'
p294
S"<class 'gluon.html.TABLE'>"
p295
sS'THEAD'
p296
S"<class 'gluon.html.THEAD'>"
p297
sS'IS_IPV4'
p298
S"<class 'gluon.validators.IS_IPV4'>"
p299
sS'IS_LENGTH'
p300
S"<class 'gluon.validators.IS_LENGTH'>"
p301
sS'IS_IPV6'
p302
S"<class 'gluon.validators.IS_IPV6'>"
p303
sS'XML'
p304
S"<class 'gluon.html.XML'>"
p305
sS'ANY_OF'
p306
S"<class 'gluon.validators.ANY_OF'>"
p307
sS'B'
S"<class 'gluon.html.B'>"
p308
sS'IMG'
p309
S"<class 'gluon.html.IMG'>"
p310
sS'SQLTABLE'
p311
S"<class 'gluon.sqlhtml.SQLTABLE'>"
p312
sS'IS_MATCH'
p313
S"<class 'gluon.validators.IS_MATCH'>"
p314
sS'IS_ALPHANUMERIC'
p315
S"<class 'gluon.validators.IS_ALPHANUMERIC'>"
p316
sS'SPAN'
p317
S"<class 'gluon.html.SPAN'>"
p318
sS'IS_JSON'
p319
S"<class 'gluon.validators.IS_JSON'>"
p320
sS'IS_IPADDRESS'
p321
S"<class 'gluon.validators.IS_IPADDRESS'>"
p322
sS'IS_SLUG'
p323
S"<class 'gluon.validators.IS_SLUG'>"
p324
sS'BEAUTIFY'
p325
S"<class 'gluon.html.BEAUTIFY'>"
p326
sS'META'
p327
S"<class 'gluon.html.META'>"
p328
sS'IS_DATE'
p329
S"<class 'gluon.validators.IS_DATE'>"
p330
sS'IS_EMAIL'
p331
S"<class 'gluon.validators.IS_EMAIL'>"
p332
sS'IS_NOT_EMPTY'
p333
S"<class 'gluon.validators.IS_NOT_EMPTY'>"
p334
sS'IS_FLOAT_IN_RANGE'
p335
S"<class 'gluon.validators.IS_FLOAT_IN_RANGE'>"
p336
sS'TBODY'
p337
S"<class 'gluon.html.TBODY'>"
p338
sS'CAT'
p339
S"<class 'gluon.html.CAT'>"
p340
sS'Field'
p341
S"<class 'gluon.dal.Field'>"
p342
sS'DIV'
p343
S"<class 'gluon.html.DIV'>"
p344
sS'LEGEND'
p345
S"<class 'gluon.html.LEGEND'>"
p346
sS'COLGROUP'
p347
S"<class 'gluon.html.COLGROUP'>"
p348
sS'DAL'
p349
S"<class 'gluon.dal.DAL'>"
p350
sS'TT'
p351
S"<class 'gluon.html.TT'>"
p352
sS'TR'
p353
S"<class 'gluon.html.TR'>"
p354
sS'LI'
p355
S"<class 'gluon.html.LI'>"
p356
sS'TH'
p357
S"<class 'gluon.html.TH'>"
p358
sS'TD'
p359
S"<class 'gluon.html.TD'>"
p360
sS'IS_URL'
p361
S"<class 'gluon.validators.IS_URL'>"
p362
sS'A'
S"<class 'gluon.html.A'>"
p363
sS'HEAD'
p364
S"<class 'gluon.html.HEAD'>"
p365
sS'IS_NULL_OR'
p366
S"<class 'gluon.validators.IS_EMPTY_OR'>"
p367
sS'IS_DATETIME_IN_RANGE'
p368
S"<class 'gluon.validators.IS_DATETIME_IN_RANGE'>"
p369
sS'FORM'
p370
S"<class 'gluon.html.FORM'>"
p371
sS'I'
S"<class 'gluon.html.I'>"
p372
sS'IS_NOT_IN_DB'
p373
S"<class 'gluon.validators.IS_NOT_IN_DB'>"
p374
sg121
S"<Storage {'body': <cStringIO.StringO object at 0...83022b848>, 'view': 'funcional/show_rotas.html'}>"
p375
sS'sub'
p376
S"<Row {'ordem': 2L, 'nome': 'DAHDI/KHOMP', 'funca...hevron-right', 'controller': 'ramais', 'id': 8L}>"
p377
sS'submenu'
p378
S'<Rows (2)>'
p379
sS'dado'
p380
S"<Row {'id_tronco': 6L, 'add_csp': False, 'id_emp...ui_antes': 0L, 'id': 1L, 'adiciona_depois': '0'}>"
p381
sS'url'
p382
S"'/admanager/funcional/f_rotas_form'"
p383
sS'__name__'
p384
S"'__restricted__'"
p385
sg56
S"<Storage {'function': 'f_rotas', 'body': <cStrin...ications/admanager/', 'post_vars': <Storage {}>}>"
p386
sS'IS_EXPR'
p387
S"<class 'gluon.validators.IS_EXPR'>"
p388
sS'T'
S'<gluon.languages.translator object>'
p389
sS'IS_IN_SET'
p390
S"<class 'gluon.validators.IS_IN_SET'>"
p391
sS'IS_UPLOAD_FILENAME'
p392
S"<class 'gluon.validators.IS_UPLOAD_FILENAME'>"
p393
sS'IS_DECIMAL_IN_RANGE'
p394
S"<class 'gluon.validators.IS_DECIMAL_IN_RANGE'>"
p395
sssS'traceback'
p396
S'Traceback (most recent call last):\n  File "/home/fernando/web2py/gluon/restricted.py", line 212, in restricted\n    exec ccode in environment\n  File "/home/fernando/web2py/applications/admanager/views/funcional/show_rotas.html", line 131, in <module>\nAttributeError: \'Row\' object has no attribute \'tipo_chamada\'\n'
p397
s.