(dp1
S'output'
p2
S'<class \'gluon.contrib.pg8000.errors.ProgrammingError\'> (\'ERROR\', \'23502\', \'null value in column "tamanho_max" violates not-null constraint\')'
p3
sS'layer'
p4
S'/home/fernando/web2py/applications/admanager/controllers/funcional.py'
p5
sS'code'
p6
S'# coding=UTF-8\n\n######-TRONCOS\n@auth.requires_login()  \ndef f_troncos():\n\tresponse.title = \'Troncos\'\n\teditor = permissao()\n\turl = URL(\'admanager\', \'funcional\', \'f_troncos_form\')\n\tprint editor\n\n\ttroncos = db(db.f_troncos).select(orderby=db.f_troncos.id)\n\t\n\treturn response.render("funcional/show_troncos.html",  \n\t\t\t\t\turl=url, editor=editor, troncos=troncos)\n\n@auth.requires(auth.has_membership(\'gerenciador\') or auth.has_membership(\'administrador\'))\ndef f_troncos_form():\n\tresponse.title = \'Troncos\'\n\tid_tronco\t= request.vars[\'id_tronco\']\n\t\n\tif id_tronco is None:\n\t\tform \t=\tSQLFORM(db.f_troncos,  \n\t\t\t\tsubmit_button=\'Adicionar\')\n\telse:\n\t\tform \t=\tSQLFORM(db.f_troncos, id_tronco, \n\t\t\t\t\t\t\t\tsubmit_button=\'Editar\')\n\n\tform.element(_name=\'tronco\')[\'_class\'] = "form-control"\n\tform.element(_name=\'dispositivo\')[\'_class\'] = "form-control"\n\tform.element(_name=\'chamadas_simultaneas\')[\'_class\'] = "form-control"\n\tform.element(_name=\'qtde_max_minutos\')[\'_class\'] = "form-control"\n\tform.element(_name=\'transbordo\')[\'_class\'] = "form-control"\n\tform.element(_name=\'csp\')[\'_class\'] = "form-control"\n\tform.element(_name=\'ddd\')[\'_class\'] = "form-control"\n\tform.element(_name=\'prefixo\')[\'_class\'] = "form-control"\n\tform.element(_name=\'chave\')[\'_class\'] = "form-control"\n\tform.element(_name=\'habilitado\')[\'_class\'] = "checkbox"\n\tform.element(_name=\'ciclo_conta\')[\'_class\'] = "form-control"\n\t#form.element(_name=\'ciclo_conta\')[\'_value\'] = "teste"\n\tif form.process().accepted:\n\t\tredirect(URL(\'f_troncos\'))\n\n\treturn response.render("funcional/form_troncos.html", form=form)\n\n######-TRONCOS-FISICOS\n@auth.requires_login()\ndef f_troncos_fisicos():\n\tresponse.title = \'Troncos F\xc3\xadsicos\'\n\tquery \t=\t(db.f_troncos.id == db.f_troncos_fisicos.id_tronco)\n\teditor \t= \tpermissao()\n\turl = URL(\'admanager\', \'funcional\', \'f_troncos_fisicos_form\')\n\n\ttroncos_fisicos = db(query).select(db.f_troncos.tronco,\n\t\tdb.f_troncos_fisicos.id, db.f_troncos_fisicos.dispositivo)\t\n\n\treturn response.render("funcional/show_troncos_fisicos.html", \n\t\t\turl=url, editor=editor, troncos_fisicos=troncos_fisicos)\n\n@auth.requires(auth.has_membership(\'gerenciador\') or auth.has_membership(\'administrador\'))\ndef f_troncos_fisicos_form():\n\tresponse.title = \'Troncos F\xc3\xadsicos\'\n\tid_tronco_fisico = request.vars[\'id_tronco_fisico\']\n\t\n\tif id_tronco_fisico is None:\n\t\tform \t=\tSQLFORM(db.f_troncos_fisicos,  \n\t\t\t\tsubmit_button=\'Adicionar\')\n\telse:\n\t\tform \t=\tSQLFORM(db.f_troncos_fisicos, id_tronco_fisico, \n\t\t\t\t\t\t\t\tsubmit_button=\'Editar\')\n\n\tform.element(_name=\'id_tronco\')[\'_class\'] = "form-control"\n\tform.element(_name=\'dispositivo\')[\'_class\'] = "form-control"\n\n\tif form.process().accepted:\n\t\tredirect(URL(\'f_troncos_fisicos\'))\n\n\treturn response.render("funcional/form_troncos_fisicos.html", \n\t\t\t\t\t\t\t\t\t\t\t\t\tform=form)\n\n######-DESTINOS\n@auth.requires_login()\ndef f_destinos():\n\tresponse.title = \'Destinos\'\n\turl = URL(\'admanager\', \'funcional\', \'f_destinos_form\')\n\teditor \t= \tpermissao()\n\tdestinos \t= \tdb(db.f_destinos).select(orderby=db.f_destinos.id)\n\n\treturn response.render("funcional/show_destinos.html", \n\t\t\t\turl=url, editor=editor, destinos=destinos)\n\n@auth.requires(auth.has_membership(\'gerenciador\') or auth.has_membership(\'administrador\'))\ndef f_destinos_form():\n\tresponse.title = \'Destinos\'\n\tid_destino\t= \trequest.vars[\'id_destino\']\n\n\tif id_destino is None:\n\t\tform \t=\tSQLFORM(db.f_destinos,  \n\t\t\t\tsubmit_button=\'Adicionar\')\n\telse:\n\t\tform \t=\tSQLFORM(db.f_destinos, id_destino, \n\t\t\t\t\t\t\t\tsubmit_button=\'Editar\')\n\n\tform.element(_name=\'tipo_chamada\')[\'_class\'] = "form-control"\n\tform.element(_name=\'expressao\')[\'_class\'] = "form-control"\n\tform.element(_name=\'destino\')[\'_class\'] = "form-control"\n\tform.element(_name=\'tamanho_max\')[\'_class\'] = "form-control"\n\tif form.process().accepted:\n\t\tredirect(URL(\'f_destinos\'))\n\n\treturn response.render("funcional/form_destinos.html", form=form)\n\n######-EMPRESA\n@auth.requires_login()\ndef f_empresa():\n\tresponse.title = \'Empresa\'\n\teditor \t= \tpermissao()\n\turl \t=\tURL(\'admanager\', \'funcional\', \'f_empresa_form\')\n\tempresa\t= \tdb(db.f_empresa).select(orderby=db.f_empresa.id)\n\n\treturn response.render("funcional/show_empresa.html", \n\t\t\t\turl=url, editor=editor, empresa=empresa)\n\n@auth.requires(auth.has_membership(\'gerenciador\') or auth.has_membership(\'administrador\'))\ndef f_empresa_form():\n\tresponse.title = \'Empresa\'\n\tid_empresa\t= \trequest.vars[\'id_empresa\']\n\tprint id_empresa\n\t\n\tif id_empresa is None:\n\t\tform \t=\tSQLFORM(db.f_empresa,  \n\t\t\t\tsubmit_button=\'Adicionar\')\n\telse:\n\t\tform \t=\tSQLFORM(db.f_empresa, id_empresa, \n\t\t\t\t\t\t\t\tsubmit_button=\'Editar\')\n\n\tform.element(_name=\'empresa\')[\'_class\'] = "form-control"\n\t#form.element(_name=\'faixa_ramal\')[\'_class\'] = "form-control"\n\tif form.process().accepted:\n\t\tredirect(URL(\'f_empresa\'))\n\n\treturn response.render("funcional/form_empresa.html", form=form)\n\n######-TARIFACAO\n@auth.requires_login()\ndef f_tarifacao():\n\tresponse.title = \'Tarifa\xc3\xa7\xc3\xa3o\'\n\teditor \t= \tpermissao()\n\turl \t=\tURL(\'admanager\', \'funcional\', \'f_tarifacao_form\')\n\ttarifacao \t=\tdb(db.f_tarifacao).select(orderby=db.f_tarifacao.id)\n\n\treturn response.render("funcional/show_tarifacao.html", \n\t\t\t\teditor=editor, url=url, tarifacao=tarifacao)\n\n@auth.requires(auth.has_membership(\'gerenciador\') or auth.has_membership(\'administrador\'))\ndef f_tarifacao_form():\n\tresponse.title = \'Tarifa\xc3\xa7\xc3\xa3o\'\n\tid_tarifacao=\trequest.vars[\'id_tarifacao\']\n\t\n\tif id_tarifacao is None:\n\t\tform \t=\tSQLFORM(db.f_tarifacao,  \n\t\t\t\tsubmit_button=\'Adicionar\')\n\telse:\n\t\tform \t=\tSQLFORM(db.f_tarifacao, id_tarifacao, \n\t\t\t\t\t\t\t\tsubmit_button=\'Editar\')\n\n\tform.element(_name=\'tarifacao\')[\'_class\'] = "form-control"\n\tform.element(_name=\'passo\')[\'_class\'] = "form-control"\n\tform.element(_name=\'valor\')[\'_class\'] = "form-control"\n\tif form.process().accepted:\n\t\tredirect(URL(\'f_tarifacao\'))\n\n\treturn response.render("funcional/form_tarifacao.html", form=form)\n\n######-ROTAS\n@auth.requires_login()\ndef f_rotas():\n\tresponse.title = \'Rotas\'\n\teditor \t= \tpermissao()\n\turl \t=\tURL(\'admanager\', \'funcional\', \'f_rotas_form\')\n\trota = db(db.f_rotas).select()\t \n\t\n\treturn response.render("funcional/show_rotas.html", \n\t\t\t\t\t\teditor=editor, url=url, rota=rota)\n\n@auth.requires(auth.has_membership(\'gerenciador\') or auth.has_membership(\'administrador\'))\ndef f_rotas_form():\n\tresponse.title = \'Rotas\'\n\tid_rota \t= \trequest.vars[\'id_rota\']\n\n\tif id_rota is None:\n\t\tform \t=\tSQLFORM(db.f_rotas,  \n\t\t\t\tsubmit_button=\'Adicionar\')\n\telse:\n\t\tform \t=\tSQLFORM(db.f_rotas, id_rota, \n\t\t\t\t\t\t\t\tsubmit_button=\'Editar\')\n\n\tform.element(_name=\'rota\')[\'_class\'] = "form-control"\n\tform.element(_name=\'id_tronco\')[\'_class\'] = "form-control"\n\tform.element(_name=\'prioridade\')[\'_class\'] = "form-control"\n\tform.element(_name=\'id_destino\')[\'_class\'] = "form-control"\n\tform.element(_name=\'exclui_antes\')[\'_class\'] = "form-control"\n\tform.element(_name=\'adiciona_antes\')[\'_class\'] = "form-control"\n\tform.element(_name=\'adiciona_depois\')[\'_class\'] = "form-control"\n\tform.element(_name=\'id_empresa\')[\'_class\'] = "form-control"\n\tform.element(_name=\'id_tarifacao\')[\'_class\'] = "form-control"\n\tform.element(_name=\'id_horario\')[\'_class\'] = "form-control"\n\tform.element(_name=\'add_csp\')[\'_class\'] = "form-control"\n\tif form.process().accepted:\n\t\tredirect(URL(\'f_rotas\'))\n\n\treturn response.render("funcional/form_rotas.html", form=form)\n\n######-HORARIO\n@auth.requires_login()\ndef f_horario():\n\tresponse.title = \'Hor\xc3\xa1rio\'\n\teditor \t= \tpermissao()\n\turl \t=\tURL(\'admanager\', \'funcional\', \'f_horario_form\')\n\thorario = db(db.f_horario).select()\n\t\n\treturn response.render("funcional/show_horario.html", \n\t\t\t\t\teditor=editor, url=url, horario=horario)\n\n@auth.requires(auth.has_membership(\'gerenciador\') or auth.has_membership(\'administrador\'))\ndef f_horario_form():\n\tresponse.title = \'Hor\xc3\xa1rio\'\n\tid_rota \t= \trequest.vars[\'id_horario\']\n\n\tif id_horario is None:\n\t\tform \t=\tSQLFORM(db.f_horario)\n\telse:\n\t\tform \t=\tSQLFORM(db.f_rotas, id_horario)\n\n\tform.element(_name=\'dia_semana\')[\'_class\'] = "form-control"\n\tform.element(_name=\'horario\')[\'_class\'] = "form-control"\n\tform.element(_name=\'acao_negativa\')[\'_class\'] = "form-control"\n\tform.element(_name=\'descricao\')[\'_class\'] = "form-control"\n\tif form.process().accepted:\n\t\tredirect(URL(\'f_horario\'))\n\n\treturn response.render("funcional/form_rotas.html", form=form)\n\n######-BILHETES-CHAMADAS\n# coding=UTF-8\n\n@auth.requires_login()\ndef f_bilhetes_chamadas():\n\tresponse.title = \'Bilhetes\'\n\teditor \t= \tpermissao()\n\turl \t=\tURL(\'admanager\', \'funcional\', \'f_bilhetes_chamadas_form\')\n\tquery \t=  \t(db.f_bilhetes_chamadas.id_tronco == db.f_troncos.id)&\\\n\t\t\t\t(db.f_bilhetes_chamadas.id_empresa == db.f_empresa.id)&\\\n\t\t\t\t(db.f_bilhetes_chamadas.id_destino == db.f_destinos.id)\n\tbilhetes = db(query).select()\n\tprint bilhetes\n\t\n\treturn response.render("funcional/show_bilhetes_chamadas.html", \n\t\t\t\t\teditor=editor, url=url, bilhetes=bilhetes)\n\n######-PARAMETROS\n@auth.requires(auth.has_membership(\'gerenciador\') or auth.has_membership(\'administrador\'))\ndef f_parametros_form():\n\tresponse.title = \'Par\xc3\xa2metros\'\n\tid_parametro=\trequest.vars[\'id_parametro\']\n\t\n\tform \t=\tSQLFORM(db.f_parametros, 1)\n\t\n\tform.element(_name=\'empresa\')[\'_class\'] = "form-control"\n\tform.element(_name=\'tempo_chamada_externa\')[\'_class\'] = "form-control"\n\tform.element(_name=\'tempo_chamada_interna\')[\'_class\'] = "form-control"\n\tform.element(_name=\'gravacao_geral\')[\'_class\'] = "form-control"\n\tform.element(_name=\'endereco_smtp\')[\'_class\'] = "form-control"\n\tform.element(_name=\'usuario_smtp\')[\'_class\'] = "form-control"\n\tform.element(_name=\'senha_smtp\')[\'_class\'] = "form-control"\n\tform.element(_name=\'ssl_smtp\')[\'_class\'] = "form-control"\n\tform.element(_name=\'porta_smtp\')[\'_class\'] = "form-control"\n\tform.element(_name=\'email_admin\')[\'_class\'] = "form-control"\n\tform.element(_name=\'faixa_ip_interna\')[\'_class\'] = "form-control"\n\tform.element(_name=\'faixa_ip_interna\')[\'_rows\'] = "4"\n\tform.element(_name=\'endereco_ip_externo\')[\'_class\'] = "form-control"\n\tform.element(_name=\'endereco_host_externo\')[\'_class\'] = "form-control"\n\tform.element(_name=\'toque_diferenciado\')[\'_class\'] = "form-control"\n\tform.element(_name=\'toque_diff_sipheader\')[\'_class\'] = "form-control"\n\tform.element(_name=\'spy_senha\')[\'_class\'] = "form-control"\n\tform.element(_name=\'spy_ramal_proibe_monitora\')[\'_class\'] = "form-control"\n\tform.element(_name=\'spy_ramal_proibe_monitora\')[\'_rows\'] = "4"\n\tform.element(_name=\'spy_ramal_espiao\')[\'_class\'] = "form-control"\n\tform.element(_name=\'spy_ramal_espiao\')[\'_rows\'] = "4"\n\tform.element(_name=\'tamanho_pin\')[\'_class\'] = "form-control"\n\tform.element(_name=\'fuso_horario\')[\'_class\'] = "form-control"\n\tform.element(_name=\'credito_dia\')[\'_class\'] = "form-control"\n\tform.element(_name=\'ura_antes_horario\')[\'_class\'] = "form-control"\n\tform.element(_name=\'bloqueio_chamadacobrar\')[\'_class\'] = "form-control"\n\tform.element(_name=\'tempo_chamada_transf\')[\'_class\'] = "form-control"\n\tform.element(_name=\'rechamada\')[\'_class\'] = "form-control"\n\tform.element(_name=\'pin_temporario\')[\'_class\'] = "form-control"\n\n\tif form.process().accepted:\n\t\tredirect(URL(\'f_parametros_form\'))\n\n\treturn response.render("funcional/form_parametros.html", form=form)\nresponse._vars=response._caller(f_destinos_form)\n'
p7
sS'snapshot'
p8
(dp9
S'exception'
p10
(dp11
S'__module__'
p12
S"'gluon.contrib.pg8000.errors'"
p13
sS'__getslice__'
p14
S"<method-wrapper '__getslice__' of ProgrammingError object>"
p15
sS'__str__'
p16
S"<method-wrapper '__str__' of ProgrammingError object>"
p17
sS'__reduce__'
p18
S'<built-in method __reduce__ of ProgrammingError object>'
p19
sS'__dict__'
p20
S'{}'
p21
sS'__sizeof__'
p22
S'<built-in method __sizeof__ of ProgrammingError object>'
p23
sS'__weakref__'
p24
S'None'
p25
sS'__init__'
p26
S"<method-wrapper '__init__' of ProgrammingError object>"
p27
sS'__setattr__'
p28
S"<method-wrapper '__setattr__' of ProgrammingError object>"
p29
sS'__reduce_ex__'
p30
S'<built-in method __reduce_ex__ of ProgrammingError object>'
p31
sS'__new__'
p32
S'<built-in method __new__ of type object>'
p33
sS'__format__'
p34
S'<built-in method __format__ of ProgrammingError object>'
p35
sS'__class__'
p36
S"<class 'gluon.contrib.pg8000.errors.ProgrammingError'>"
p37
sS'__doc__'
p38
S'None'
p39
sS'__getitem__'
p40
S"<method-wrapper '__getitem__' of ProgrammingError object>"
p41
sS'__setstate__'
p42
S'<built-in method __setstate__ of ProgrammingError object>'
p43
sS'__getattribute__'
p44
S"<method-wrapper '__getattribute__' of ProgrammingError object>"
p45
sS'args'
p46
S'(\'ERROR\', \'23502\', \'null value in column "tamanho_max" violates not-null constraint\')'
p47
sS'__subclasshook__'
p48
S'<built-in method __subclasshook__ of type object>'
p49
sS'__unicode__'
p50
S'<built-in method __unicode__ of ProgrammingError object>'
p51
sS'__delattr__'
p52
S"<method-wrapper '__delattr__' of ProgrammingError object>"
p53
sS'__repr__'
p54
S"<method-wrapper '__repr__' of ProgrammingError object>"
p55
sS'__hash__'
p56
S"<method-wrapper '__hash__' of ProgrammingError object>"
p57
ssS'evalue'
p58
S'(\'ERROR\', \'23502\', \'null value in column "tamanho_max" violates not-null constraint\')'
p59
sS'request'
p60
cgluon.html
XML_unpickle
p61
(S's\x82U\x00\x00<div><table><tr><td style="font-weight:bold;vertical-align:top">ajax</td><td valign="top">:</td><td><div>False</div></td></tr><tr><td style="font-weight:bold;vertical-align:top">application</td><td valign="top">:</td><td><div>admanager</div></td></tr><tr><td style="font-weight:bold;vertical-align:top">args</td><td valign="top">:</td><td><div><table></table></div></td></tr><tr><td style="font-weight:bold;vertical-align:top">body</td><td valign="top">:</td><td><div>&lt;open file &#x27;&lt;fdopen&gt;&#x27;, mode &#x27;w+b&#x27; at 0x7fab791d7ae0&gt;</div></td></tr><tr><td style="font-weight:bold;vertical-align:top">cid</td><td valign="top">:</td><td><div>None</div></td></tr><tr><td style="font-weight:bold;vertical-align:top">client</td><td valign="top">:</td><td><div>127.0.0.1</div></td></tr><tr><td style="font-weight:bold;vertical-align:top">controller</td><td valign="top">:</td><td><div>funcional</div></td></tr><tr><td style="font-weight:bold;vertical-align:top">cookies</td><td valign="top">:</td><td><div><table><tr><td style="font-weight:bold;vertical-align:top">session_id_admanager</td><td valign="top">:</td><td><div>127.0.0.1-79d08653-bec6-47e6-9604-a8581b8caa25<table><tr><td style="font-weight:bold;vertical-align:top">comment</td><td valign="top">:</td><td><div></div></td></tr><tr><td style="font-weight:bold;vertical-align:top">domain</td><td valign="top">:</td><td><div></div></td></tr><tr><td style="font-weight:bold;vertical-align:top">expires</td><td valign="top">:</td><td><div></div></td></tr><tr><td style="font-weight:bold;vertical-align:top">httponly</td><td valign="top">:</td><td><div></div></td></tr><tr><td style="font-weight:bold;vertical-align:top">max-age</td><td valign="top">:</td><td><div></div></td></tr><tr><td style="font-weight:bold;vertical-align:top">path</td><td valign="top">:</td><td><div></div></td></tr><tr><td style="font-weight:bold;vertical-align:top">secure</td><td valign="top">:</td><td><div></div></td></tr><tr><td style="font-weight:bold;vertical-align:top">version</td><td valign="top">:</td><td><div></div></td></tr></table></div></td></tr></table></div></td></tr><tr><td style="font-weight:bold;vertical-align:top">env</td><td valign="top">:</td><td><div><table><tr><td style="font-weight:bold;vertical-align:top">app_folders</td><td valign="top">:</td><td><div>set([&#x27;/home/fernando/web2py/applications/admanager/&#x27;])</div></td></tr><tr><td style="font-weight:bold;vertical-align:top">applications_parent</td><td valign="top">:</td><td><div>/home/fernando/web2py</div></td></tr><tr><td style="font-weight:bold;vertical-align:top">cmd_args</td><td valign="top">:</td><td><div><table></table></div></td></tr><tr><td style="font-weight:bold;vertical-align:top">cmd_options</td><td valign="top">:</td><td><div>&lt;Values at 0x7fab9bda7a28: {&#x27;verbose&#x27;: False, &#x27;ip&#x27;: &#x27;127.0.0.1&#x27;, &#x27;with_scheduler&#x27;: False, &#x27;ips&#x27;: [&#x27;127.0.1.1&#x27;], &#x27;shutdown_timeout&#x27;: 5, &#x27;taskbar&#x27;: False, &#x27;with_coverage&#x27;: False, &#x27;port&#x27;: 8000, &#x27;maxthreads&#x27;: None, &#x27;softcron&#x27;: False, &#x27;server_name&#x27;: &#x27;fernando-pc&#x27;, &#x27;bpython&#x27;: False, &#x27;nogui&#x27;: False, &#x27;pid_filename&#x27;: &#x27;httpserver.pid&#x27;, &#x27;extcron&#x27;: False, &#x27;runcron&#x27;: False, &#x27;run_system_tests&#x27;: False, &#x27;test&#x27;: None, &#x27;folder&#x27;: &#x27;/home/fernando/web2py&#x27;, &#x27;config&#x27;: &#x27;&#x27;, &#x27;minthreads&#x27;: None, &#x27;winservice&#x27;: &#x27;&#x27;, &#x27;shell&#x27;: None, &#x27;run&#x27;: &#x27;&#x27;, &#x27;log_filename&#x27;: &#x27;httpserver.log&#x27;, &#x27;debuglevel&#x27;: 30, &#x27;args&#x27;: [&#x27;&#x27;], &#x27;socket_timeout&#x27;: 5, &#x27;ssl_ca_certificate&#x27;: None, &#x27;scheduler&#x27;: None, &#x27;profiler_filename&#x27;: None, &#x27;ssl_private_key&#x27;: &#x27;&#x27;, &#x27;scheduler_groups&#x27;: None, &#x27;password&#x27;: &#x27;123456&#x27;, &#x27;request_queue_size&#x27;: 5, &#x27;ssl_certificate&#x27;: &#x27;&#x27;, &#x27;cronjob&#x27;: False, &#x27;numthreads&#x27;: None, &#x27;quiet&#x27;: False, &#x27;interfaces&#x27;: None, &#x27;import_models&#x27;: False, &#x27;timeout&#x27;: 10, &#x27;plain&#x27;: False, &#x27;nobanner&#x27;: False}&gt;</div></td></tr><tr><td style="font-weight:bold;vertical-align:top">content_length</td><td valign="top">:</td><td><div>675</div></td></tr><tr><td style="font-weight:bold;vertical-align:top">content_type</td><td valign="top">:</td><td><div>multipart/form-data; boundary=----WebKitFormBoundaryx10DUAUNZmzPl7Fn</div></td></tr><tr><td style="font-weight:bold;vertical-align:top">db_sessions</td><td valign="top">:</td><td><div>set([])</div></td></tr><tr><td style="font-weight:bold;vertical-align:top">debugging</td><td valign="top">:</td><td><div>False</div></td></tr><tr><td style="font-weight:bold;vertical-align:top">gluon_parent</td><td valign="top">:</td><td><div>/home/fernando/web2py</div></td></tr><tr><td style="font-weight:bold;vertical-align:top">http_accept</td><td valign="top">:</td><td><div>text/html,application/xhtml+xml,application/xml;q=0.9,image/webp,*/*;q=0.8</div></td></tr><tr><td style="font-weight:bold;vertical-align:top">http_accept_encoding</td><td valign="top">:</td><td><div>gzip,deflate,sdch</div></td></tr><tr><td style="font-weight:bold;vertical-align:top">http_accept_language</td><td valign="top">:</td><td><div>pt-BR,pt;q=0.8,en-US;q=0.6,en;q=0.4</div></td></tr><tr><td style="font-weight:bold;vertical-align:top">http_cache_control</td><td valign="top">:</td><td><div>max-age=0</div></td></tr><tr><td style="font-weight:bold;vertical-align:top">http_connection</td><td valign="top">:</td><td><div>keep-alive</div></td></tr><tr><td style="font-weight:bold;vertical-align:top">http_content_length</td><td valign="top">:</td><td><div>675</div></td></tr><tr><td style="font-weight:bold;vertical-align:top">http_content_type</td><td valign="top">:</td><td><div>multipart/form-data; boundary=----WebKitFormBoundaryx10DUAUNZmzPl7Fn</div></td></tr><tr><td style="font-weight:bold;vertical-align:top">http_cookie</td><td valign="top">:</td><td><div>session_id_admanager=127.0.0.1-79d08653-bec6-47e6-9604-a8581b8caa25</div></td></tr><tr><td style="font-weight:bold;vertical-align:top">http_host</td><td valign="top">:</td><td><div>127.0.0.1:8000</div></td></tr><tr><td style="font-weight:bold;vertical-align:top">http_origin</td><td valign="top">:</td><td><div>http://127.0.0.1:8000</div></td></tr><tr><td style="font-weight:bold;vertical-align:top">http_referer</td><td valign="top">:</td><td><div>http://127.0.0.1:8000/admanager/funcional/f_destinos_form</div></td></tr><tr><td style="font-weight:bold;vertical-align:top">http_user_agent</td><td valign="top">:</td><td><div>Mozilla/5.0 (X11; Linux x86_64) AppleWebKit/537.36 (KHTML, like Gecko) Chrome/35.0.1916.114 Safari/537.36</div></td></tr><tr><td style="font-weight:bold;vertical-align:top">is_jython</td><td valign="top">:</td><td><div>False</div></td></tr><tr><td style="font-weight:bold;vertical-align:top">is_pypy</td><td valign="top">:</td><td><div>False</div></td></tr><tr><td style="font-weight:bold;vertical-align:top">local_hosts</td><td valign="top">:</td><td><div><table><tr><td><div>::1</div></td></tr><tr><td><div>127.0.1.1</div></td></tr><tr><td><div>fernando-pc</div></td></tr><tr><td><div>::ffff:127.0.0.1</div></td></tr><tr><td><div>127.0.0.1</div></td></tr></table></div></td></tr><tr><td style="font-weight:bold;vertical-align:top">path_info</td><td valign="top">:</td><td><div>/admanager/funcional/f_destinos_form</div></td></tr><tr><td style="font-weight:bold;vertical-align:top">query_string</td><td valign="top">:</td><td><div></div></td></tr><tr><td style="font-weight:bold;vertical-align:top">remote_addr</td><td valign="top">:</td><td><div>127.0.0.1</div></td></tr><tr><td style="font-weight:bold;vertical-align:top">remote_port</td><td valign="top">:</td><td><div>40136</div></td></tr><tr><td style="font-weight:bold;vertical-align:top">request_method</td><td valign="top">:</td><td><div>POST</div></td></tr><tr><td style="font-weight:bold;vertical-align:top">request_uri</td><td valign="top">:</td><td><div>/admanager/funcional/f_destinos_form</div></td></tr><tr><td style="font-weight:bold;vertical-align:top">script_name</td><td valign="top">:</td><td><div></div></td></tr><tr><td style="font-weight:bold;vertical-align:top">server_name</td><td valign="top">:</td><td><div>fernando-pc</div></td></tr><tr><td style="font-weight:bold;vertical-align:top">server_port</td><td valign="top">:</td><td><div>8000</div></td></tr><tr><td style="font-weight:bold;vertical-align:top">server_protocol</td><td valign="top">:</td><td><div>HTTP/1.1</div></td></tr><tr><td style="font-weight:bold;vertical-align:top">server_software</td><td valign="top">:</td><td><div>Rocket 1.2.6</div></td></tr><tr><td style="font-weight:bold;vertical-align:top">web2py_original_uri</td><td valign="top">:</td><td><div>/admanager/funcional/f_destinos_form</div></td></tr><tr><td style="font-weight:bold;vertical-align:top">web2py_path</td><td valign="top">:</td><td><div>/home/fernando/web2py</div></td></tr><tr><td style="font-weight:bold;vertical-align:top">web2py_version</td><td valign="top">:</td><td><div>2.5.1-stable+timestamp.2013.06.06.15.39.19</div></td></tr><tr><td style="font-weight:bold;vertical-align:top">wsgi_errors</td><td valign="top">:</td><td><div>&lt;open file &#x27;&lt;stderr&gt;&#x27;, mode &#x27;w&#x27; at 0x7faba01151e0&gt;</div></td></tr><tr><td style="font-weight:bold;vertical-align:top">wsgi_file_wrapper</td><td valign="top">:</td><td><div>&lt;class wsgiref.util.FileWrapper at 0x7fab9be24120&gt;</div></td></tr><tr><td style="font-weight:bold;vertical-align:top">wsgi_input</td><td valign="top">:</td><td><div>&lt;socket._fileobject object at 0x7fab7931c2d0&gt;</div></td></tr><tr><td style="font-weight:bold;vertical-align:top">wsgi_multiprocess</td><td valign="top">:</td><td><div>False</div></td></tr><tr><td style="font-weight:bold;vertical-align:top">wsgi_multithread</td><td valign="top">:</td><td><div>True</div></td></tr><tr><td style="font-weight:bold;vertical-align:top">wsgi_run_once</td><td valign="top">:</td><td><div>False</div></td></tr><tr><td style="font-weight:bold;vertical-align:top">wsgi_url_scheme</td><td valign="top">:</td><td><div>http</div></td></tr><tr><td style="font-weight:bold;vertical-align:top">wsgi_version</td><td valign="top">:</td><td><div><table><tr><td><div>1</div></td></tr><tr><td><div>0</div></td></tr></table></div></td></tr></table></div></td></tr><tr><td style="font-weight:bold;vertical-align:top">extension</td><td valign="top">:</td><td><div>html</div></td></tr><tr><td style="font-weight:bold;vertical-align:top">folder</td><td valign="top">:</td><td><div>/home/fernando/web2py/applications/admanager/</div></td></tr><tr><td style="font-weight:bold;vertical-align:top">function</td><td valign="top">:</td><td><div>f_destinos_form</div></td></tr><tr><td style="font-weight:bold;vertical-align:top">get_vars</td><td valign="top">:</td><td><div><table></table></div></td></tr><tr><td style="font-weight:bold;vertical-align:top">global_settings</td><td valign="top">:</td><td><div><table><tr><td style="font-weight:bold;vertical-align:top">app_folders</td><td valign="top">:</td><td><div>set([&#x27;/home/fernando/web2py/applications/admanager/&#x27;])</div></td></tr><tr><td style="font-weight:bold;vertical-align:top">applications_parent</td><td valign="top">:</td><td><div>/home/fernando/web2py</div></td></tr><tr><td style="font-weight:bold;vertical-align:top">cmd_args</td><td valign="top">:</td><td><div><table></table></div></td></tr><tr><td style="font-weight:bold;vertical-align:top">cmd_options</td><td valign="top">:</td><td><div>&lt;Values at 0x7fab9bda7a28: {&#x27;verbose&#x27;: False, &#x27;ip&#x27;: &#x27;127.0.0.1&#x27;, &#x27;with_scheduler&#x27;: False, &#x27;ips&#x27;: [&#x27;127.0.1.1&#x27;], &#x27;shutdown_timeout&#x27;: 5, &#x27;taskbar&#x27;: False, &#x27;with_coverage&#x27;: False, &#x27;port&#x27;: 8000, &#x27;maxthreads&#x27;: None, &#x27;softcron&#x27;: False, &#x27;server_name&#x27;: &#x27;fernando-pc&#x27;, &#x27;bpython&#x27;: False, &#x27;nogui&#x27;: False, &#x27;pid_filename&#x27;: &#x27;httpserver.pid&#x27;, &#x27;extcron&#x27;: False, &#x27;runcron&#x27;: False, &#x27;run_system_tests&#x27;: False, &#x27;test&#x27;: None, &#x27;folder&#x27;: &#x27;/home/fernando/web2py&#x27;, &#x27;config&#x27;: &#x27;&#x27;, &#x27;minthreads&#x27;: None, &#x27;winservice&#x27;: &#x27;&#x27;, &#x27;shell&#x27;: None, &#x27;run&#x27;: &#x27;&#x27;, &#x27;log_filename&#x27;: &#x27;httpserver.log&#x27;, &#x27;debuglevel&#x27;: 30, &#x27;args&#x27;: [&#x27;&#x27;], &#x27;socket_timeout&#x27;: 5, &#x27;ssl_ca_certificate&#x27;: None, &#x27;scheduler&#x27;: None, &#x27;profiler_filename&#x27;: None, &#x27;ssl_private_key&#x27;: &#x27;&#x27;, &#x27;scheduler_groups&#x27;: None, &#x27;password&#x27;: &#x27;123456&#x27;, &#x27;request_queue_size&#x27;: 5, &#x27;ssl_certificate&#x27;: &#x27;&#x27;, &#x27;cronjob&#x27;: False, &#x27;numthreads&#x27;: None, &#x27;quiet&#x27;: False, &#x27;interfaces&#x27;: None, &#x27;import_models&#x27;: False, &#x27;timeout&#x27;: 10, &#x27;plain&#x27;: False, &#x27;nobanner&#x27;: False}&gt;</div></td></tr><tr><td style="font-weight:bold;vertical-align:top">db_sessions</td><td valign="top">:</td><td><div>set([])</div></td></tr><tr><td style="font-weight:bold;vertical-align:top">debugging</td><td valign="top">:</td><td><div>False</div></td></tr><tr><td style="font-weight:bold;vertical-align:top">gluon_parent</td><td valign="top">:</td><td><div>/home/fernando/web2py</div></td></tr><tr><td style="font-weight:bold;vertical-align:top">is_jython</td><td valign="top">:</td><td><div>False</div></td></tr><tr><td style="font-weight:bold;vertical-align:top">is_pypy</td><td valign="top">:</td><td><div>False</div></td></tr><tr><td style="font-weight:bold;vertical-align:top">local_hosts</td><td valign="top">:</td><td><div><table><tr><td><div>::1</div></td></tr><tr><td><div>127.0.1.1</div></td></tr><tr><td><div>fernando-pc</div></td></tr><tr><td><div>::ffff:127.0.0.1</div></td></tr><tr><td><div>127.0.0.1</div></td></tr></table></div></td></tr><tr><td style="font-weight:bold;vertical-align:top">web2py_version</td><td valign="top">:</td><td><div>2.5.1-stable+timestamp.2013.06.06.15.39.19</div></td></tr></table></div></td></tr><tr><td style="font-weight:bold;vertical-align:top">is_https</td><td valign="top">:</td><td><div>False</div></td></tr><tr><td style="font-weight:bold;vertical-align:top">is_local</td><td valign="top">:</td><td><div>True</div></td></tr><tr><td style="font-weight:bold;vertical-align:top">is_restful</td><td valign="top">:</td><td><div>False</div></td></tr><tr><td style="font-weight:bold;vertical-align:top">now</td><td valign="top">:</td><td><div>datetime.datetime(2014, 6, 23, 10, 8, 38, 78146)</div></td></tr><tr><td style="font-weight:bold;vertical-align:top">post_vars</td><td valign="top">:</td><td><div><table><tr><td style="font-weight:bold;vertical-align:top">destino</td><td valign="top">:</td><td><div></div></td></tr><tr><td style="font-weight:bold;vertical-align:top">expressao</td><td valign="top">:</td><td><div></div></td></tr><tr><td style="font-weight:bold;vertical-align:top">tamanho_max</td><td valign="top">:</td><td><div></div></td></tr><tr><td style="font-weight:bold;vertical-align:top">tipo_chamada</td><td valign="top">:</td><td><div></div></td></tr></table></div></td></tr><tr><td style="font-weight:bold;vertical-align:top">url</td><td valign="top">:</td><td><div>/admanager/funcional/f_destinos_form</div></td></tr><tr><td style="font-weight:bold;vertical-align:top">utcnow</td><td valign="top">:</td><td><div>datetime.datetime(2014, 6, 23, 13, 8, 38, 78170)</div></td></tr><tr><td style="font-weight:bold;vertical-align:top">uuid</td><td valign="top">:</td><td><div>admanager/127.0.0.1.2014-06-23.10-08-38.c4294d8f-ce11-4788-9d5b-5f7ca7d90a1f</div></td></tr><tr><td style="font-weight:bold;vertical-align:top">vars</td><td valign="top">:</td><td><div><table><tr><td style="font-weight:bold;vertical-align:top">destino</td><td valign="top">:</td><td><div></div></td></tr><tr><td style="font-weight:bold;vertical-align:top">expressao</td><td valign="top">:</td><td><div></div></td></tr><tr><td style="font-weight:bold;vertical-align:top">tamanho_max</td><td valign="top">:</td><td><div></div></td></tr><tr><td style="font-weight:bold;vertical-align:top">tipo_chamada</td><td valign="top">:</td><td><div></div></td></tr></table></div></td></tr><tr><td style="font-weight:bold;vertical-align:top">wsgi</td><td valign="top">:</td><td><div><table><tr><td style="font-weight:bold;vertical-align:top">environ</td><td valign="top">:</td><td><div><table><tr><td style="font-weight:bold;vertical-align:top">CONTENT_LENGTH</td><td valign="top">:</td><td><div>675</div></td></tr><tr><td style="font-weight:bold;vertical-align:top">CONTENT_TYPE</td><td valign="top">:</td><td><div>multipart/form-data; boundary=----WebKitFormBoundaryx10DUAUNZmzPl7Fn</div></td></tr><tr><td style="font-weight:bold;vertical-align:top">HTTP_ACCEPT</td><td valign="top">:</td><td><div>text/html,application/xhtml+xml,application/xml;q=0.9,image/webp,*/*;q=0.8</div></td></tr><tr><td style="font-weight:bold;vertical-align:top">HTTP_ACCEPT_ENCODING</td><td valign="top">:</td><td><div>gzip,deflate,sdch</div></td></tr><tr><td style="font-weight:bold;vertical-align:top">HTTP_ACCEPT_LANGUAGE</td><td valign="top">:</td><td><div>pt-BR,pt;q=0.8,en-US;q=0.6,en;q=0.4</div></td></tr><tr><td style="font-weight:bold;vertical-align:top">HTTP_CACHE_CONTROL</td><td valign="top">:</td><td><div>max-age=0</div></td></tr><tr><td style="font-weight:bold;vertical-align:top">HTTP_CONNECTION</td><td valign="top">:</td><td><div>keep-alive</div></td></tr><tr><td style="font-weight:bold;vertical-align:top">HTTP_CONTENT_LENGTH</td><td valign="top">:</td><td><div>675</div></td></tr><tr><td style="font-weight:bold;vertical-align:top">HTTP_CONTENT_TYPE</td><td valign="top">:</td><td><div>multipart/form-data; boundary=----WebKitFormBoundaryx10DUAUNZmzPl7Fn</div></td></tr><tr><td style="font-weight:bold;vertical-align:top">HTTP_COOKIE</td><td valign="top">:</td><td><div>session_id_admanager=127.0.0.1-79d08653-bec6-47e6-9604-a8581b8caa25</div></td></tr><tr><td style="font-weight:bold;vertical-align:top">HTTP_HOST</td><td valign="top">:</td><td><div>127.0.0.1:8000</div></td></tr><tr><td style="font-weight:bold;vertical-align:top">HTTP_ORIGIN</td><td valign="top">:</td><td><div>http://127.0.0.1:8000</div></td></tr><tr><td style="font-weight:bold;vertical-align:top">HTTP_REFERER</td><td valign="top">:</td><td><div>http://127.0.0.1:8000/admanager/funcional/f_destinos_form</div></td></tr><tr><td style="font-weight:bold;vertical-align:top">HTTP_USER_AGENT</td><td valign="top">:</td><td><div>Mozilla/5.0 (X11; Linux x86_64) AppleWebKit/537.36 (KHTML, like Gecko) Chrome/35.0.1916.114 Safari/537.36</div></td></tr><tr><td style="font-weight:bold;vertical-align:top">PATH_INFO</td><td valign="top">:</td><td><div>/admanager/funcional/f_destinos_form</div></td></tr><tr><td style="font-weight:bold;vertical-align:top">QUERY_STRING</td><td valign="top">:</td><td><div></div></td></tr><tr><td style="font-weight:bold;vertical-align:top">REMOTE_ADDR</td><td valign="top">:</td><td><div>127.0.0.1</div></td></tr><tr><td style="font-weight:bold;vertical-align:top">REMOTE_PORT</td><td valign="top">:</td><td><div>40136</div></td></tr><tr><td style="font-weight:bold;vertical-align:top">REQUEST_METHOD</td><td valign="top">:</td><td><div>POST</div></td></tr><tr><td style="font-weight:bold;vertical-align:top">REQUEST_URI</td><td valign="top">:</td><td><div>/admanager/funcional/f_destinos_form</div></td></tr><tr><td style="font-weight:bold;vertical-align:top">SCRIPT_NAME</td><td valign="top">:</td><td><div></div></td></tr><tr><td style="font-weight:bold;vertical-align:top">SERVER_NAME</td><td valign="top">:</td><td><div>fernando-pc</div></td></tr><tr><td style="font-weight:bold;vertical-align:top">SERVER_PORT</td><td valign="top">:</td><td><div>8000</div></td></tr><tr><td style="font-weight:bold;vertical-align:top">SERVER_PROTOCOL</td><td valign="top">:</td><td><div>HTTP/1.1</div></td></tr><tr><td style="font-weight:bold;vertical-align:top">SERVER_SOFTWARE</td><td valign="top">:</td><td><div>Rocket 1.2.6</div></td></tr><tr><td style="font-weight:bold;vertical-align:top">WEB2PY_ORIGINAL_URI</td><td valign="top">:</td><td><div>/admanager/funcional/f_destinos_form</div></td></tr><tr><td style="font-weight:bold;vertical-align:top">wsgi.errors</td><td valign="top">:</td><td><div>&lt;open file &#x27;&lt;stderr&gt;&#x27;, mode &#x27;w&#x27; at 0x7faba01151e0&gt;</div></td></tr><tr><td style="font-weight:bold;vertical-align:top">wsgi.file_wrapper</td><td valign="top">:</td><td><div>&lt;class wsgiref.util.FileWrapper at 0x7fab9be24120&gt;</div></td></tr><tr><td style="font-weight:bold;vertical-align:top">wsgi.input</td><td valign="top">:</td><td><div>&lt;open file &#x27;&lt;fdopen&gt;&#x27;, mode &#x27;w+b&#x27; at 0x7fab791d7ae0&gt;</div></td></tr><tr><td style="font-weight:bold;vertical-align:top">wsgi.multiprocess</td><td valign="top">:</td><td><div>False</div></td></tr><tr><td style="font-weight:bold;vertical-align:top">wsgi.multithread</td><td valign="top">:</td><td><div>True</div></td></tr><tr><td style="font-weight:bold;vertical-align:top">wsgi.run_once</td><td valign="top">:</td><td><div>False</div></td></tr><tr><td style="font-weight:bold;vertical-align:top">wsgi.url_scheme</td><td valign="top">:</td><td><div>http</div></td></tr><tr><td style="font-weight:bold;vertical-align:top">wsgi.version</td><td valign="top">:</td><td><div>1</div></td></tr></table></div></td></tr></table></div></td></tr></table></div>'
tRp62
sS'frames'
p63
(lp64
(dp65
S'file'
p66
S'/home/fernando/web2py/gluon/restricted.py'
p67
sS'dump'
p68
(dp69
S'environment'
p70
S"{'A': <class 'gluon.html.A'>, 'ANY_OF': <class 'gluon.validators.ANY_OF'>, 'Auth': <class 'gluon.tools.Auth'>, 'B': <class 'gluon.html.B'>, 'BEAUTIFY': <class 'gluon.html.BEAUTIFY'>, 'BODY': <class 'gluon.html.BODY'>, 'BR': <class 'gluon.html.BR'>, 'BUTTON': <class 'gluon.html.BUTTON'>, 'CAT': <class 'gluon.html.CAT'>, 'CENTER': <class 'gluon.html.CENTER'>, ...}"
p71
sS'ccode'
p72
S'<code object <module> at 0x7fab792be730, file "/...ions/admanager/controllers/funcional.py", line 4>'
p73
ssS'lnum'
p74
I212
sS'lines'
p75
(dp76
I207
S'    try:'
p77
sI208
S'        if isinstance(code, types.CodeType):'
p78
sI209
S'            ccode = code'
p79
sI210
S'        else:'
p80
sI211
S'            ccode = compile2(code, layer)'
p81
sI212
S'        exec ccode in environment'
p82
sI213
S'    except HTTP:'
p83
sI214
S'        raise'
p84
sI215
S'    except RestrictedError:'
p85
sI216
S'        # do not encapsulate (obfuscate) the original RestrictedError'
p86
ssS'call'
p87
S"(code='# coding=UTF-8\\n\\n######-TRONCOS\\n@auth.requires_lo...response._vars=response._caller(f_destinos_form)\\n', environment={'A': <class 'gluon.html.A'>, 'ANY_OF': <class 'gluon.validators.ANY_OF'>, 'Auth': <class 'gluon.tools.Auth'>, 'B': <class 'gluon.html.B'>, 'BEAUTIFY': <class 'gluon.html.BEAUTIFY'>, 'BODY': <class 'gluon.html.BODY'>, 'BR': <class 'gluon.html.BR'>, 'BUTTON': <class 'gluon.html.BUTTON'>, 'CAT': <class 'gluon.html.CAT'>, 'CENTER': <class 'gluon.html.CENTER'>, ...}, layer='/home/fernando/web2py/applications/admanager/controllers/funcional.py')"
p88
sS'func'
p89
S'restricted'
p90
sa(dp91
g66
S'/home/fernando/web2py/applications/admanager/controllers/funcional.py'
p92
sg68
(dp93
sg74
I302
sg75
(dp94
I292
S'\tform.element(_name=\'ura_antes_horario\')[\'_class\'] = "form-control"'
p95
sI293
S'\tform.element(_name=\'bloqueio_chamadacobrar\')[\'_class\'] = "form-control"'
p96
sI294
S'\tform.element(_name=\'tempo_chamada_transf\')[\'_class\'] = "form-control"'
p97
sI295
S'\tform.element(_name=\'rechamada\')[\'_class\'] = "form-control"'
p98
sI296
S'\tform.element(_name=\'pin_temporario\')[\'_class\'] = "form-control"'
p99
sI297
S''
sI298
S'\tif form.process().accepted:'
p100
sI299
S"\t\tredirect(URL('f_parametros_form'))"
p101
sI300
S''
sI301
S'\treturn response.render("funcional/form_parametros.html", form=form)'
p102
ssg87
S'()'
p103
sg89
S'<module>'
p104
sa(dp105
g66
S'/home/fernando/web2py/gluon/globals.py'
p106
sg68
(dp107
S'self'
p108
S'undefined'
p109
sS'f'
S'<function f_destinos_form>'
p110
ssg74
I194
sg75
(dp111
I192
S"        self.delimiters = ('{{', '}}')"
p112
sI193
S'        self._vars = None'
p113
sI194
S'        self._caller = lambda f: f()'
p114
sI195
S'        self._view_environment = None'
p115
sI196
S'        self._custom_commit = None'
p116
sI197
S'        self._custom_rollback = None'
p117
sI198
S''
sI189
S'        self.menu = []             # used by the default view layout'
p118
sI190
S'        self.files = []            # used by web2py_ajax.html'
p119
sI191
S'        self.generic_patterns = []  # patterns to allow generic views'
p120
ssg87
S'(f=<function f_destinos_form>)'
p121
sg89
S'<lambda>'
p122
sa(dp123
g66
S'/home/fernando/web2py/gluon/tools.py'
p124
sg68
(dp125
S'action'
p126
S'<function f_destinos_form>'
p127
sS'a'
S'()'
p128
sS'b'
g21
ssg74
I3022
sg75
(dp129
I3017
S'                    flag = condition'
p130
sI3018
S'                if not flag:'
p131
sI3019
S'                    current.session.flash = self.messages.access_denied'
p132
sI3020
S'                    return call_or_redirect('
p133
sI3021
S'                        self.settings.on_failed_authorization)'
p134
sI3022
S'                return action(*a, **b)'
p135
sI3023
S'            f.__doc__ = action.__doc__'
p136
sI3024
S'            f.__name__ = action.__name__'
p137
sI3025
S'            f.__dict__.update(action.__dict__)'
p138
sI3026
S'            return f'
p139
ssg87
S'(*a=(), **b={})'
p140
sg89
S'f'
sa(dp141
g66
S'/home/fernando/web2py/applications/admanager/controllers/funcional.py'
p142
sg68
(dp143
S'form.process'
p144
S'<bound method SQLFORM.process of <gluon.sqlhtml.SQLFORM object>>'
p145
sS').accepted'
p146
g109
sS'form'
p147
S'<gluon.sqlhtml.SQLFORM object>'
p148
ssg74
I107
sg75
(dp149
I102
S''
sI103
S'\tform.element(_name=\'tipo_chamada\')[\'_class\'] = "form-control"'
p150
sI104
S'\tform.element(_name=\'expressao\')[\'_class\'] = "form-control"'
p151
sI105
S'\tform.element(_name=\'destino\')[\'_class\'] = "form-control"'
p152
sI106
S'\tform.element(_name=\'tamanho_max\')[\'_class\'] = "form-control"'
p153
sI107
S'\tif form.process().accepted:'
p154
sI108
S"\t\tredirect(URL('f_destinos'))"
p155
sI109
S''
sI110
S'\treturn response.render("funcional/form_destinos.html", form=form)'
p156
sI111
S''
ssg87
S'()'
p157
sg89
S'f_destinos_form'
p158
sa(dp159
g66
S'/home/fernando/web2py/gluon/html.py'
p160
sg68
(dp161
S'self'
p162
S'<gluon.sqlhtml.SQLFORM object>'
p163
sS'self.validate'
p164
S'<bound method SQLFORM.validate of <gluon.sqlhtml.SQLFORM object>>'
p165
sS'kwargs'
p166
S"{'dbio': True}"
p167
ssg74
I2188
sg75
(dp168
I2183
S'        def action():'
p169
sI2184
S'            return dict(form=SQLFORM(db.table).process(onsuccess=my_callback)'
p170
sI2185
S'        """'
p171
sI2186
S"        kwargs['dbio'] = kwargs.get('dbio', True)"
p172
sI2187
S'                                    # necessary for SQLHTML forms'
p173
sI2188
S'        self.validate(**kwargs)'
p174
sI2189
S'        return self'
p175
sI2190
S''
sI2191
S'    REDIRECT_JS = "window.location=\'%s\';return false"'
p176
sI2192
S''
ssg87
S"(self=<gluon.sqlhtml.SQLFORM object>, **kwargs={'dbio': True})"
p177
sg89
S'process'
p178
sa(dp179
g66
S'/home/fernando/web2py/gluon/html.py'
p180
sg68
(dp181
S'self'
p182
S'<gluon.sqlhtml.SQLFORM object>'
p183
sS'self.accepts'
p184
S'<bound method SQLFORM.accepts of <gluon.sqlhtml.SQLFORM object>>'
p185
sS'kwargs'
p186
S"{'dbio': True, 'request_vars': <Storage {'expressao': '', 'tamanho_max': '', 't...df095d7a2257', '_formname': 'f_destinos/create'}>, 'session': <Storage {'_auth_next': None, '_formkey[form_kho...login]': '5f420593-dd9c-4970-aed4-d05e6f09e443'}>}"
p187
ssg74
I2127
sg75
(dp188
I2122
S"        for key in ('message_onsuccess', 'message_onfailure', 'onsuccess',"
p189
sI2123
S"                    'onfailure', 'next', 'message_onchange', 'onchange'):"
p190
sI2124
S'            if key in kwargs:'
p191
sI2125
S'                del kwargs[key]'
p192
sI2126
S''
sI2127
S'        if self.accepts(**kwargs):'
p193
sI2128
S"            if onsuccess == 'flash':"
p194
sI2129
S'                if next:'
p195
sI2130
S'                    current.session.flash = message_onsuccess'
p196
sI2131
S'                else:'
p197
ssg87
S"(self=<gluon.sqlhtml.SQLFORM object>, **kwargs={'dbio': True, 'request_vars': <Storage {'expressao': '', 'tamanho_max': '', 't...df095d7a2257', '_formname': 'f_destinos/create'}>, 'session': <Storage {'_auth_next': None, '_formkey[form_kho...login]': '5f420593-dd9c-4970-aed4-d05e6f09e443'}>})"
p198
sg89
S'validate'
p199
sa(dp200
g66
S'/home/fernando/web2py/gluon/sqlhtml.py'
p201
sg68
(dp202
S'self.vars.id'
p203
S'None'
p204
sS'fields'
p205
S"{'destino': '', 'expressao': '', 'tamanho_max': None, 'tarifado': False, 'tipo_chamada': ''}"
p206
sS'self'
p207
S'<gluon.sqlhtml.SQLFORM object>'
p208
sS'self.vars'
p209
S"<Storage {'expressao': '', 'tipo_chamada': '', '...no': '', 'tamanho_max': None, 'tarifado': False}>"
p210
sS'self.table.insert'
p211
S'<bound method Table.insert of <Table f_destinos ...chamada,expressao,destino,tamanho_max,tarifado)>>'
p212
sS'self.table'
p213
S'<Table f_destinos (id,tipo_chamada,expressao,destino,tamanho_max,tarifado)>'
p214
ssg74
I1571
sg75
(dp215
I1568
S'                        self.table._db(self.table._id == self.record['
p216
sI1569
S'                                       self.id_field_name]).update(**fields)'
p217
sI1570
S'                else:'
p218
sI1571
S'                    self.vars.id = self.table.insert(**fields)'
p219
sI1572
S'        self.accepted = ret'
p220
sI1573
S'        return ret'
p221
sI1574
S''
sI1575
S'    AUTOTYPES = {'
p222
sI1566
S'                    self.vars.id = self.record[self.id_field_name]'
p223
sI1567
S'                    if fields:'
p224
ssg87
S"(self=<gluon.sqlhtml.SQLFORM object>, request_vars=<Storage {'expressao': '', 'tamanho_max': '', 't...df095d7a2257', '_formname': 'f_destinos/create'}>, session=<Storage {'_auth_next': None, '_formkey[form_kho...login]': '5f420593-dd9c-4970-aed4-d05e6f09e443'}>, formname='f_destinos/create', keepvalues=False, onvalidation=None, dbio=True, hideerror=False, detect_record_change=False, **kwargs={})"
p225
sg89
S'accepts'
p226
sa(dp227
g66
S'/home/fernando/web2py/gluon/dal.py'
p228
sg68
(dp229
S'self._listify'
p230
S'<bound method Table._listify of <Table f_destino...chamada,expressao,destino,tamanho_max,tarifado)>>'
p231
sS'fields'
p232
S"{'destino': '', 'expressao': '', 'tamanho_max': None, 'tarifado': False, 'tipo_chamada': ''}"
p233
sS'self'
p234
S'<Table f_destinos (id,tipo_chamada,expressao,destino,tamanho_max,tarifado)>'
p235
sS'ret'
p236
g109
sS'self._db._adapter'
p237
S'<gluon.dal.PostgreSQLAdapter object>'
p238
sS'self._db._adapter.insert'
p239
S'<bound method PostgreSQLAdapter.insert of <gluon.dal.PostgreSQLAdapter object>>'
p240
sS'self._db'
p241
S'<DAL uri="postgres:pg8000:******@127.0.0.1/admanager_dev">'
p242
ssg74
I8598
sg75
(dp243
I8593
S''
sI8594
S'    def insert(self, **fields):'
p244
sI8595
S'        fields = self._defaults(fields)'
p245
sI8596
S'        self._attempt_upload(fields)'
p246
sI8597
S'        if any(f(fields) for f in self._before_insert): return 0'
p247
sI8598
S'        ret =  self._db._adapter.insert(self, self._listify(fields))'
p248
sI8599
S'        if ret and self._after_insert:'
p249
sI8600
S'            fields = Row(fields)'
p250
sI8601
S'            [f(fields,ret) for f in self._after_insert]'
p251
sI8602
S'        return ret'
p252
ssg87
S"(self=<Table f_destinos (id,tipo_chamada,expressao,destino,tamanho_max,tarifado)>, **fields={'destino': '', 'expressao': '', 'tamanho_max': None, 'tarifado': False, 'tipo_chamada': ''})"
p253
sg89
S'insert'
p254
sa(dp255
g66
S'/home/fernando/web2py/gluon/dal.py'
p256
sg68
(dp257
S'e'
S'ProgrammingError(\'ERROR\', \'23502\', \'null value i...lumn "tamanho_max" violates not-null constraint\')'
p258
ssg74
I1210
sg75
(dp259
I1205
S'            self.execute(query)'
p260
sI1206
S'        except Exception:'
p261
sI1207
S'            e = sys.exc_info()[1]'
p262
sI1208
S"            if hasattr(table,'_on_insert_error'):"
p263
sI1209
S'                return table._on_insert_error(table,fields,e)'
p264
sI1210
S'            raise e'
p265
sI1211
S"        if hasattr(table,'_primarykey'):"
p266
sI1212
S'            return dict([(k[0].name, k[1]) for k in fields \\'
p267
sI1213
S'                             if k[0].name in table._primarykey])'
p268
sI1214
S'        id = self.lastrowid(table)'
p269
ssg87
S"(self=<gluon.dal.PostgreSQLAdapter object>, table=<Table f_destinos (id,tipo_chamada,expressao,destino,tamanho_max,tarifado)>, fields=[(<gluon.dal.Field object>, ''), (<gluon.dal.Field object>, ''), (<gluon.dal.Field object>, ''), (<gluon.dal.Field object>, None), (<gluon.dal.Field object>, False)])"
p270
sg89
g254
sasS'pyver'
p271
S'Python 2.7.6: /usr/bin/python (prefix: /usr)'
p272
sS'session'
p273
g61
(S's\xd6\x08\x00\x00<div><table><tr><td style="font-weight:bold;vertical-align:top">alerta_sucesso</td><td valign="top">:</td><td><div>None</div></td></tr><tr><td style="font-weight:bold;vertical-align:top">auth</td><td valign="top">:</td><td><div><table><tr><td style="font-weight:bold;vertical-align:top">expiration</td><td valign="top">:</td><td><div>3600</div></td></tr><tr><td style="font-weight:bold;vertical-align:top">hmac_key</td><td valign="top">:</td><td><div>974433c0-0960-4568-93ee-4a966be2ceb8</div></td></tr><tr><td style="font-weight:bold;vertical-align:top">last_visit</td><td valign="top">:</td><td><div>datetime.datetime(2014, 6, 23, 10, 6, 14, 288550)</div></td></tr><tr><td style="font-weight:bold;vertical-align:top">remember</td><td valign="top">:</td><td><div>False</div></td></tr><tr><td style="font-weight:bold;vertical-align:top">user</td><td valign="top">:</td><td><div><table><tr><td style="font-weight:bold;vertical-align:top">email</td><td valign="top">:</td><td><div>root@forip.com.br</div></td></tr><tr><td style="font-weight:bold;vertical-align:top">first_name</td><td valign="top">:</td><td><div>root</div></td></tr><tr><td style="font-weight:bold;vertical-align:top">id</td><td valign="top">:</td><td><div>1L</div></td></tr><tr><td style="font-weight:bold;vertical-align:top">last_name</td><td valign="top">:</td><td><div>root</div></td></tr><tr><td style="font-weight:bold;vertical-align:top">ramal</td><td valign="top">:</td><td><div>0000</div></td></tr><tr><td style="font-weight:bold;vertical-align:top">registration_id</td><td valign="top">:</td><td><div></div></td></tr><tr><td style="font-weight:bold;vertical-align:top">registration_key</td><td valign="top">:</td><td><div></div></td></tr><tr><td style="font-weight:bold;vertical-align:top">reset_password_key</td><td valign="top">:</td><td><div></div></td></tr></table></div></td></tr><tr><td style="font-weight:bold;vertical-align:top">user_groups</td><td valign="top">:</td><td><div><table><tr><td style="font-weight:bold;vertical-align:top">1</td><td valign="top">:</td><td><div>administrador</div></td></tr></table></div></td></tr></table></div></td></tr><tr><td style="font-weight:bold;vertical-align:top">flash</td><td valign="top">:</td><td><div>None</div></td></tr></table></div>'
tRp274
sS'etype'
p275
S"<class 'gluon.contrib.pg8000.errors.ProgrammingError'>"
p276
sS'date'
p277
S'Mon Jun 23 10:08:38 2014'
p278
sS'response'
p279
g61
(S's\xfd\x12\x00\x00<div><table><tr><td style="font-weight:bold;vertical-align:top">body</td><td valign="top">:</td><td><div>&lt;cStringIO.StringO object at 0x7fab793d0ab0&gt;</div></td></tr><tr><td style="font-weight:bold;vertical-align:top">cookies</td><td valign="top">:</td><td><div><table><tr><td style="font-weight:bold;vertical-align:top">session_id_admanager</td><td valign="top">:</td><td><div>127.0.0.1-79d08653-bec6-47e6-9604-a8581b8caa25<table><tr><td style="font-weight:bold;vertical-align:top">comment</td><td valign="top">:</td><td><div></div></td></tr><tr><td style="font-weight:bold;vertical-align:top">domain</td><td valign="top">:</td><td><div></div></td></tr><tr><td style="font-weight:bold;vertical-align:top">expires</td><td valign="top">:</td><td><div></div></td></tr><tr><td style="font-weight:bold;vertical-align:top">httponly</td><td valign="top">:</td><td><div></div></td></tr><tr><td style="font-weight:bold;vertical-align:top">max-age</td><td valign="top">:</td><td><div></div></td></tr><tr><td style="font-weight:bold;vertical-align:top">path</td><td valign="top">:</td><td><div>/</div></td></tr><tr><td style="font-weight:bold;vertical-align:top">secure</td><td valign="top">:</td><td><div></div></td></tr><tr><td style="font-weight:bold;vertical-align:top">version</td><td valign="top">:</td><td><div></div></td></tr></table></div></td></tr></table></div></td></tr><tr><td style="font-weight:bold;vertical-align:top">delimiters</td><td valign="top">:</td><td><div><table><tr><td><div>{{</div></td></tr><tr><td><div>}}</div></td></tr></table></div></td></tr><tr><td style="font-weight:bold;vertical-align:top">files</td><td valign="top">:</td><td><div><table></table></div></td></tr><tr><td style="font-weight:bold;vertical-align:top">flash</td><td valign="top">:</td><td><div></div></td></tr><tr><td style="font-weight:bold;vertical-align:top">generic_patterns</td><td valign="top">:</td><td><div><table><tr><td><div>*</div></td></tr></table></div></td></tr><tr><td style="font-weight:bold;vertical-align:top">headers</td><td valign="top">:</td><td><div><table><tr><td style="font-weight:bold;vertical-align:top">X-Powered-By</td><td valign="top">:</td><td><div>web2py</div></td></tr></table></div></td></tr><tr><td style="font-weight:bold;vertical-align:top">menu</td><td valign="top">:</td><td><div><table></table></div></td></tr><tr><td style="font-weight:bold;vertical-align:top">meta</td><td valign="top">:</td><td><div><table><tr><td style="font-weight:bold;vertical-align:top">keywords</td><td valign="top">:</td><td><div>chave, outra, e outra</div></td></tr></table></div></td></tr><tr><td style="font-weight:bold;vertical-align:top">models_to_run</td><td valign="top">:</td><td><div><table><tr><td><div>^\\w+\\.py$</div></td></tr><tr><td><div>^funcional/\\w+\\.py$</div></td></tr><tr><td><div>^funcional/f_destinos_form/\\w+\\.py$</div></td></tr></table></div></td></tr><tr><td style="font-weight:bold;vertical-align:top">postprocessing</td><td valign="top">:</td><td><div><table></table></div></td></tr><tr><td style="font-weight:bold;vertical-align:top">session_cookie_expires</td><td valign="top">:</td><td><div>None</div></td></tr><tr><td style="font-weight:bold;vertical-align:top">session_data_name</td><td valign="top">:</td><td><div>session_data_admanager</div></td></tr><tr><td style="font-weight:bold;vertical-align:top">session_file</td><td valign="top">:</td><td><div>&lt;open file &#x27;/home/fernando/web2py/applications/admanager/sessions/127.0.0.1-79d08653-bec6-47e6-9604-a8581b8caa25&#x27;, mode &#x27;rb+&#x27; at 0x7fab791d7d20&gt;</div></td></tr><tr><td style="font-weight:bold;vertical-align:top">session_filename</td><td valign="top">:</td><td><div>/home/fernando/web2py/applications/admanager/sessions/127.0.0.1-79d08653-bec6-47e6-9604-a8581b8caa25</div></td></tr><tr><td style="font-weight:bold;vertical-align:top">session_id</td><td valign="top">:</td><td><div>127.0.0.1-79d08653-bec6-47e6-9604-a8581b8caa25</div></td></tr><tr><td style="font-weight:bold;vertical-align:top">session_id_name</td><td valign="top">:</td><td><div>session_id_admanager</div></td></tr><tr><td style="font-weight:bold;vertical-align:top">session_locked</td><td valign="top">:</td><td><div>True</div></td></tr><tr><td style="font-weight:bold;vertical-align:top">session_new</td><td valign="top">:</td><td><div>False</div></td></tr><tr><td style="font-weight:bold;vertical-align:top">session_storage_type</td><td valign="top">:</td><td><div>file</div></td></tr><tr><td style="font-weight:bold;vertical-align:top">status</td><td valign="top">:</td><td><div>200</div></td></tr><tr><td style="font-weight:bold;vertical-align:top">title</td><td valign="top">:</td><td><div>Destinos</div></td></tr><tr><td style="font-weight:bold;vertical-align:top">view</td><td valign="top">:</td><td><div>funcional/f_destinos_form.html</div></td></tr></table></div>'
tRp280
sS'locals'
p281
(dp282
S'query'
p283
S'"INSERT INTO f_destinos(expressao,tipo_chamada,de...tamanho_max,tarifado) VALUES (\'\',\'\',\'\',NULL,\'F\');"'
p284
sS'self'
p285
S'<gluon.dal.PostgreSQLAdapter object>'
p286
sS'e'
S'ProgrammingError(\'ERROR\', \'23502\', \'null value i...lumn "tamanho_max" violates not-null constraint\')'
p287
sS'fields'
p288
S"[(<gluon.dal.Field object>, ''), (<gluon.dal.Field object>, ''), (<gluon.dal.Field object>, ''), (<gluon.dal.Field object>, None), (<gluon.dal.Field object>, False)]"
p289
sS'table'
p290
S'<Table f_destinos (id,tipo_chamada,expressao,destino,tamanho_max,tarifado)>'
p291
sssS'traceback'
p292
S'Traceback (most recent call last):\n  File "/home/fernando/web2py/gluon/restricted.py", line 212, in restricted\n    exec ccode in environment\n  File "/home/fernando/web2py/applications/admanager/controllers/funcional.py", line 302, in <module>\n  File "/home/fernando/web2py/gluon/globals.py", line 194, in <lambda>\n    self._caller = lambda f: f()\n  File "/home/fernando/web2py/gluon/tools.py", line 3022, in f\n    return action(*a, **b)\n  File "/home/fernando/web2py/applications/admanager/controllers/funcional.py", line 107, in f_destinos_form\n    if form.process().accepted:\n  File "/home/fernando/web2py/gluon/html.py", line 2188, in process\n    self.validate(**kwargs)\n  File "/home/fernando/web2py/gluon/html.py", line 2127, in validate\n    if self.accepts(**kwargs):\n  File "/home/fernando/web2py/gluon/sqlhtml.py", line 1571, in accepts\n    self.vars.id = self.table.insert(**fields)\n  File "/home/fernando/web2py/gluon/dal.py", line 8598, in insert\n    ret =  self._db._adapter.insert(self, self._listify(fields))\n  File "/home/fernando/web2py/gluon/dal.py", line 1210, in insert\n    raise e\nProgrammingError: (\'ERROR\', \'23502\', \'null value in column "tamanho_max" violates not-null constraint\')\n'
p293
s.