(dp1
S'output'
p2
S'<class \'gluon.contrib.pg8000.errors.ProgrammingError\'> (\'ERROR\', \'23502\', \'null value in column "chamadas_simultaneas" violates not-null constraint\')'
p3
sS'layer'
p4
S'/home/fernando/web2py/applications/admanager/controllers/funcional.py'
p5
sS'code'
p6
S'# coding=UTF-8\n\n######-TRONCOS\n@auth.requires_login()  \ndef f_troncos():\n\tresponse.title = \'Troncos\'\n\teditor = permissao()\n\turl = URL(\'admanager\', \'funcional\', \'f_troncos_form\')\n\tprint editor\n\n\ttroncos = db(db.f_troncos).select(orderby=db.f_troncos.id)\n\t\n\treturn response.render("funcional/show_troncos.html",  \n\t\t\t\t\turl=url, editor=editor, troncos=troncos)\n\n@auth.requires(auth.has_membership(\'gerenciador\') or auth.has_membership(\'administrador\'))\ndef f_troncos_form():\n\tresponse.title = \'Troncos\'\n\tid_tronco\t= request.vars[\'id_tronco\']\n\t\n\tif id_tronco is None:\n\t\tform \t=\tSQLFORM(db.f_troncos,  \n\t\t\t\tsubmit_button=\'Adicionar\')\n\telse:\n\t\tform \t=\tSQLFORM(db.f_troncos, id_tronco, \n\t\t\t\t\t\t\t\tsubmit_button=\'Editar\')\n\n\tfor input in form.elements():\n\t\tinput[\'_class\'] = \'form-control\'\n\tform.element(_name=\'habilitado\')[\'_class\'] = "checkbox"\n\n\t#form.element(_name=\'ciclo_conta\')[\'_value\'] = "teste"\n\tif form.process().accepted:\n\t\tredirect(URL(\'f_troncos\'))\n\n\treturn response.render("funcional/form_troncos.html", form=form)\n\n######-TRONCOS-FISICOS\n@auth.requires_login()\ndef f_troncos_fisicos():\n\tresponse.title = \'Troncos F\xc3\xadsicos\'\n\tquery \t=\t(db.f_troncos.id == db.f_troncos_fisicos.id_tronco)\n\teditor \t= \tpermissao()\n\turl = URL(\'admanager\', \'funcional\', \'f_troncos_fisicos_form\')\n\n\ttroncos_fisicos = db(query).select(db.f_troncos.tronco,\n\t\tdb.f_troncos_fisicos.id, db.f_troncos_fisicos.dispositivo)\t\n\n\treturn response.render("funcional/show_troncos_fisicos.html", \n\t\t\turl=url, editor=editor, troncos_fisicos=troncos_fisicos)\n\n@auth.requires(auth.has_membership(\'gerenciador\') or auth.has_membership(\'administrador\'))\ndef f_troncos_fisicos_form():\n\tresponse.title = \'Troncos F\xc3\xadsicos\'\n\tid_tronco_fisico = request.vars[\'id_tronco_fisico\']\n\t\n\tif id_tronco_fisico is None:\n\t\tform \t=\tSQLFORM(db.f_troncos_fisicos,  \n\t\t\t\tsubmit_button=\'Adicionar\')\n\telse:\n\t\tform \t=\tSQLFORM(db.f_troncos_fisicos, id_tronco_fisico, \n\t\t\t\t\t\t\t\tsubmit_button=\'Editar\')\n\n\tform.element(_name=\'id_tronco\')[\'_class\'] = "form-control"\n\tform.element(_name=\'dispositivo\')[\'_class\'] = "form-control"\n\n\tif form.process().accepted:\n\t\tredirect(URL(\'f_troncos_fisicos\'))\n\n\treturn response.render("funcional/form_troncos_fisicos.html", \n\t\t\t\t\t\t\t\t\t\t\t\t\tform=form)\n\n######-DESTINOS\n@auth.requires_login()\ndef f_destinos():\n\tresponse.title = \'Destinos\'\n\turl = URL(\'admanager\', \'funcional\', \'f_destinos_form\')\n\teditor \t= \tpermissao()\n\tdestinos \t= \tdb(db.f_destinos).select(orderby=db.f_destinos.id)\n\n\treturn response.render("funcional/show_destinos.html", \n\t\t\t\turl=url, editor=editor, destinos=destinos)\n\n@auth.requires(auth.has_membership(\'gerenciador\') or auth.has_membership(\'administrador\'))\ndef f_destinos_form():\n\tresponse.title = \'Destinos\'\n\tid_destino\t= \trequest.vars[\'id_destino\']\n\n\tif id_destino is None:\n\t\tform \t=\tSQLFORM(db.f_destinos,  \n\t\t\t\tsubmit_button=\'Adicionar\')\n\telse:\n\t\tform \t=\tSQLFORM(db.f_destinos, id_destino, \n\t\t\t\t\t\t\t\tsubmit_button=\'Editar\')\n\n\tform.element(_name=\'tipo_chamada\')[\'_class\'] = "form-control"\n\tform.element(_name=\'expressao\')[\'_class\'] = "form-control"\n\tform.element(_name=\'destino\')[\'_class\'] = "form-control"\n\tform.element(_name=\'tamanho_max\')[\'_class\'] = "form-control"\n\tif form.process().accepted:\n\t\tredirect(URL(\'f_destinos\'))\n\n\treturn response.render("funcional/form_destinos.html", form=form)\n\n######-EMPRESA\n@auth.requires_login()\ndef f_empresa():\n\tresponse.title = \'Empresa\'\n\teditor \t= \tpermissao()\n\turl \t=\tURL(\'admanager\', \'funcional\', \'f_empresa_form\')\n\tempresa\t= \tdb(db.f_empresa).select(orderby=db.f_empresa.id)\n\n\treturn response.render("funcional/show_empresa.html", \n\t\t\t\turl=url, editor=editor, empresa=empresa)\n\n@auth.requires(auth.has_membership(\'gerenciador\') or auth.has_membership(\'administrador\'))\ndef f_empresa_form():\n\tresponse.title = \'Empresa\'\n\tid_empresa\t= \trequest.vars[\'id_empresa\']\n\tprint id_empresa\n\t\n\tif id_empresa is None:\n\t\tform \t=\tSQLFORM(db.f_empresa,  \n\t\t\t\tsubmit_button=\'Adicionar\')\n\telse:\n\t\tform \t=\tSQLFORM(db.f_empresa, id_empresa, \n\t\t\t\t\t\t\t\tsubmit_button=\'Editar\')\n\n\tform.element(_name=\'empresa\')[\'_class\'] = "form-control"\n\t#form.element(_name=\'faixa_ramal\')[\'_class\'] = "form-control"\n\tif form.process().accepted:\n\t\tredirect(URL(\'f_empresa\'))\n\n\treturn response.render("funcional/form_empresa.html", form=form)\n\n######-TARIFACAO\n@auth.requires_login()\ndef f_tarifacao():\n\tresponse.title = \'Tarifa\xc3\xa7\xc3\xa3o\'\n\teditor \t= \tpermissao()\n\turl \t=\tURL(\'admanager\', \'funcional\', \'f_tarifacao_form\')\n\ttarifacao \t=\tdb(db.f_tarifacao).select(orderby=db.f_tarifacao.id)\n\n\treturn response.render("funcional/show_tarifacao.html", \n\t\t\t\teditor=editor, url=url, tarifacao=tarifacao)\n\n@auth.requires(auth.has_membership(\'gerenciador\') or auth.has_membership(\'administrador\'))\ndef f_tarifacao_form():\n\tresponse.title = \'Tarifa\xc3\xa7\xc3\xa3o\'\n\tid_tarifacao=\trequest.vars[\'id_tarifacao\']\n\t\n\tif id_tarifacao is None:\n\t\tform \t=\tSQLFORM(db.f_tarifacao,  \n\t\t\t\tsubmit_button=\'Adicionar\')\n\telse:\n\t\tform \t=\tSQLFORM(db.f_tarifacao, id_tarifacao, \n\t\t\t\t\t\t\t\tsubmit_button=\'Editar\')\n\n\tform.element(_name=\'tarifacao\')[\'_class\'] = "form-control"\n\tform.element(_name=\'passo\')[\'_class\'] = "form-control"\n\tform.element(_name=\'valor\')[\'_class\'] = "form-control"\n\tif form.process().accepted:\n\t\tredirect(URL(\'f_tarifacao\'))\n\n\treturn response.render("funcional/form_tarifacao.html", form=form)\n\n######-ROTAS\n@auth.requires_login()\ndef f_rotas():\n\tresponse.title = \'Rotas\'\n\teditor \t= \tpermissao()\n\turl \t=\tURL(\'admanager\', \'funcional\', \'f_rotas_form\')\n\trota = db(db.f_rotas).select()\t \n\t\n\treturn response.render("funcional/show_rotas.html", \n\t\t\t\t\t\teditor=editor, url=url, rota=rota)\n\n@auth.requires(auth.has_membership(\'gerenciador\') or auth.has_membership(\'administrador\'))\ndef f_rotas_form():\n\tresponse.title = \'Rotas\'\n\tid_rota \t= \trequest.vars[\'id_rota\']\n\n\tif id_rota is None:\n\t\tform \t=\tSQLFORM(db.f_rotas,  \n\t\t\t\tsubmit_button=\'Adicionar\')\n\telse:\n\t\tform \t=\tSQLFORM(db.f_rotas, id_rota, \n\t\t\t\t\t\t\t\tsubmit_button=\'Editar\')\n\n\tform.element(_name=\'rota\')[\'_class\'] = "form-control"\n\tform.element(_name=\'id_tronco\')[\'_class\'] = "form-control"\n\tform.element(_name=\'prioridade\')[\'_class\'] = "form-control"\n\tform.element(_name=\'id_destino\')[\'_class\'] = "form-control"\n\tform.element(_name=\'exclui_antes\')[\'_class\'] = "form-control"\n\tform.element(_name=\'adiciona_antes\')[\'_class\'] = "form-control"\n\tform.element(_name=\'adiciona_depois\')[\'_class\'] = "form-control"\n\tform.element(_name=\'id_empresa\')[\'_class\'] = "form-control"\n\tform.element(_name=\'id_tarifacao\')[\'_class\'] = "form-control"\n\tform.element(_name=\'id_horario\')[\'_class\'] = "form-control"\n\tform.element(_name=\'add_csp\')[\'_class\'] = "form-control"\n\tif form.process().accepted:\n\t\tredirect(URL(\'f_rotas\'))\n\n\treturn response.render("funcional/form_rotas.html", form=form)\n\n######-HORARIO\n@auth.requires_login()\ndef f_horario():\n\tresponse.title = \'Hor\xc3\xa1rio\'\n\teditor \t= \tpermissao()\n\turl \t=\tURL(\'admanager\', \'funcional\', \'f_horario_form\')\n\thorario = db(db.f_horario).select()\n\t\n\treturn response.render("funcional/show_horario.html", \n\t\t\t\t\teditor=editor, url=url, horario=horario)\n\n@auth.requires(auth.has_membership(\'gerenciador\') or auth.has_membership(\'administrador\'))\ndef f_horario_form():\n\tresponse.title = \'Hor\xc3\xa1rio\'\n\tid_rota \t= \trequest.vars[\'id_horario\']\n\n\tif id_horario is None:\n\t\tform \t=\tSQLFORM(db.f_horario)\n\telse:\n\t\tform \t=\tSQLFORM(db.f_rotas, id_horario)\n\n\tform.element(_name=\'dia_semana\')[\'_class\'] = "form-control"\n\tform.element(_name=\'horario\')[\'_class\'] = "form-control"\n\tform.element(_name=\'acao_negativa\')[\'_class\'] = "form-control"\n\tform.element(_name=\'descricao\')[\'_class\'] = "form-control"\n\tif form.process().accepted:\n\t\tredirect(URL(\'f_horario\'))\n\n\treturn response.render("funcional/form_rotas.html", form=form)\n\n######-BILHETES-CHAMADAS\n# coding=UTF-8\n\n@auth.requires_login()\ndef f_bilhetes_chamadas():\n\tresponse.title = \'Bilhetes\'\n\teditor \t= \tpermissao()\n\turl \t=\tURL(\'admanager\', \'funcional\', \'f_bilhetes_chamadas_form\')\n\tquery \t=  \t(db.f_bilhetes_chamadas.id_tronco == db.f_troncos.id)&\\\n\t\t\t\t(db.f_bilhetes_chamadas.id_empresa == db.f_empresa.id)&\\\n\t\t\t\t(db.f_bilhetes_chamadas.id_destino == db.f_destinos.id)\n\tbilhetes = db(query).select()\n\tprint bilhetes\n\t\n\treturn response.render("funcional/show_bilhetes_chamadas.html", \n\t\t\t\t\teditor=editor, url=url, bilhetes=bilhetes)\n\n######-PARAMETROS\n@auth.requires(auth.has_membership(\'gerenciador\') or auth.has_membership(\'administrador\'))\ndef f_parametros_form():\n\tresponse.title = \'Par\xc3\xa2metros\'\n\tid_parametro=\trequest.vars[\'id_parametro\']\n\t\n\tform \t=\tSQLFORM(db.f_parametros, 1)\n\t\n\tform.element(_name=\'empresa\')[\'_class\'] = "form-control"\n\tform.element(_name=\'tempo_chamada_externa\')[\'_class\'] = "form-control"\n\tform.element(_name=\'tempo_chamada_interna\')[\'_class\'] = "form-control"\n\tform.element(_name=\'gravacao_geral\')[\'_class\'] = "form-control"\n\tform.element(_name=\'endereco_smtp\')[\'_class\'] = "form-control"\n\tform.element(_name=\'usuario_smtp\')[\'_class\'] = "form-control"\n\tform.element(_name=\'senha_smtp\')[\'_class\'] = "form-control"\n\tform.element(_name=\'ssl_smtp\')[\'_class\'] = "form-control"\n\tform.element(_name=\'porta_smtp\')[\'_class\'] = "form-control"\n\tform.element(_name=\'email_admin\')[\'_class\'] = "form-control"\n\tform.element(_name=\'faixa_ip_interna\')[\'_class\'] = "form-control"\n\tform.element(_name=\'faixa_ip_interna\')[\'_rows\'] = "4"\n\tform.element(_name=\'endereco_ip_externo\')[\'_class\'] = "form-control"\n\tform.element(_name=\'endereco_host_externo\')[\'_class\'] = "form-control"\n\tform.element(_name=\'toque_diferenciado\')[\'_class\'] = "form-control"\n\tform.element(_name=\'toque_diff_sipheader\')[\'_class\'] = "form-control"\n\tform.element(_name=\'spy_senha\')[\'_class\'] = "form-control"\n\tform.element(_name=\'spy_ramal_proibe_monitora\')[\'_class\'] = "form-control"\n\tform.element(_name=\'spy_ramal_proibe_monitora\')[\'_rows\'] = "4"\n\tform.element(_name=\'spy_ramal_espiao\')[\'_class\'] = "form-control"\n\tform.element(_name=\'spy_ramal_espiao\')[\'_rows\'] = "4"\n\tform.element(_name=\'tamanho_pin\')[\'_class\'] = "form-control"\n\tform.element(_name=\'fuso_horario\')[\'_class\'] = "form-control"\n\tform.element(_name=\'credito_dia\')[\'_class\'] = "form-control"\n\tform.element(_name=\'ura_antes_horario\')[\'_class\'] = "form-control"\n\tform.element(_name=\'bloqueio_chamadacobrar\')[\'_class\'] = "form-control"\n\tform.element(_name=\'tempo_chamada_transf\')[\'_class\'] = "form-control"\n\tform.element(_name=\'rechamada\')[\'_class\'] = "form-control"\n\tform.element(_name=\'pin_temporario\')[\'_class\'] = "form-control"\n\n\tif form.process().accepted:\n\t\tredirect(URL(\'f_parametros_form\'))\n\n\treturn response.render("funcional/form_parametros.html", form=form)\n\n@auth.requires_login()\ndef delete():\n\tprint request.vars\n\tfuncao \t=\trequest.vars[\'tabela\']\n\tid_tab\t=\trequest.vars[\'id_tab\']\n\tif funcao \t== "f_troncos":\n\t\ttabela \t=\t db.f_troncos.id\n\tif funcao \t==\t"f_troncos_fisicos":\n\t\ttabela \t= \tdb.f_troncos_fisicos.id\n\tif funcao \t== "f_tarifacao":\n\t\ttabela \t= \tdb.f_tarifacao.id\n\tif funcao \t== "f_rotas":\n\t\ttabela \t= \tdb.f_rotas.id\n\tif funcao \t== \t"f_tarifacao":\n\t\ttabela \t=\tdb.f_tarifacao.id\n\tif funcao \t== \t"f_empresa":\n\t\ttabela \t= db.f_empresa.id\n\tif funcao \t== \t"f_destinos":\n\t\ttabela \t= \tdb.f_destinos.id\n\n\tdb(tabela == id_tab).delete()\t\n\tredirect(URL(funcao))\nresponse._vars=response._caller(f_troncos_form)\n'
p7
sS'snapshot'
p8
(dp9
S'exception'
p10
(dp11
S'__module__'
p12
S"'gluon.contrib.pg8000.errors'"
p13
sS'__getslice__'
p14
S"<method-wrapper '__getslice__' of ProgrammingError object>"
p15
sS'__str__'
p16
S"<method-wrapper '__str__' of ProgrammingError object>"
p17
sS'__reduce__'
p18
S'<built-in method __reduce__ of ProgrammingError object>'
p19
sS'__dict__'
p20
S'{}'
p21
sS'__sizeof__'
p22
S'<built-in method __sizeof__ of ProgrammingError object>'
p23
sS'__weakref__'
p24
S'None'
p25
sS'__init__'
p26
S"<method-wrapper '__init__' of ProgrammingError object>"
p27
sS'__setattr__'
p28
S"<method-wrapper '__setattr__' of ProgrammingError object>"
p29
sS'__reduce_ex__'
p30
S'<built-in method __reduce_ex__ of ProgrammingError object>'
p31
sS'__new__'
p32
S'<built-in method __new__ of type object>'
p33
sS'__format__'
p34
S'<built-in method __format__ of ProgrammingError object>'
p35
sS'__class__'
p36
S"<class 'gluon.contrib.pg8000.errors.ProgrammingError'>"
p37
sS'__doc__'
p38
S'None'
p39
sS'__getitem__'
p40
S"<method-wrapper '__getitem__' of ProgrammingError object>"
p41
sS'__setstate__'
p42
S'<built-in method __setstate__ of ProgrammingError object>'
p43
sS'__getattribute__'
p44
S"<method-wrapper '__getattribute__' of ProgrammingError object>"
p45
sS'args'
p46
S'(\'ERROR\', \'23502\', \'null value in column "chamadas_simultaneas" violates not-null constraint\')'
p47
sS'__subclasshook__'
p48
S'<built-in method __subclasshook__ of type object>'
p49
sS'__unicode__'
p50
S'<built-in method __unicode__ of ProgrammingError object>'
p51
sS'__delattr__'
p52
S"<method-wrapper '__delattr__' of ProgrammingError object>"
p53
sS'__repr__'
p54
S"<method-wrapper '__repr__' of ProgrammingError object>"
p55
sS'__hash__'
p56
S"<method-wrapper '__hash__' of ProgrammingError object>"
p57
ssS'evalue'
p58
S'(\'ERROR\', \'23502\', \'null value in column "chamadas_simultaneas" violates not-null constraint\')'
p59
sS'request'
p60
cgluon.html
XML_unpickle
p61
(S's\x95h\x00\x00<div><table><tr><td style="font-weight:bold;vertical-align:top">ajax</td><td valign="top">:</td><td><div>False</div></td></tr><tr><td style="font-weight:bold;vertical-align:top">application</td><td valign="top">:</td><td><div>admanager</div></td></tr><tr><td style="font-weight:bold;vertical-align:top">args</td><td valign="top">:</td><td><div><table></table></div></td></tr><tr><td style="font-weight:bold;vertical-align:top">body</td><td valign="top">:</td><td><div>&lt;open file &#x27;&lt;fdopen&gt;&#x27;, mode &#x27;w+b&#x27; at 0x7fe498f3b390&gt;</div></td></tr><tr><td style="font-weight:bold;vertical-align:top">cid</td><td valign="top">:</td><td><div>None</div></td></tr><tr><td style="font-weight:bold;vertical-align:top">client</td><td valign="top">:</td><td><div>127.0.0.1</div></td></tr><tr><td style="font-weight:bold;vertical-align:top">controller</td><td valign="top">:</td><td><div>funcional</div></td></tr><tr><td style="font-weight:bold;vertical-align:top">cookies</td><td valign="top">:</td><td><div><table><tr><td style="font-weight:bold;vertical-align:top">PHPSESSID</td><td valign="top">:</td><td><div>a9o4e6hnbr9qal4kr8huh84sm5<table><tr><td style="font-weight:bold;vertical-align:top">comment</td><td valign="top">:</td><td><div></div></td></tr><tr><td style="font-weight:bold;vertical-align:top">domain</td><td valign="top">:</td><td><div></div></td></tr><tr><td style="font-weight:bold;vertical-align:top">expires</td><td valign="top">:</td><td><div></div></td></tr><tr><td style="font-weight:bold;vertical-align:top">httponly</td><td valign="top">:</td><td><div></div></td></tr><tr><td style="font-weight:bold;vertical-align:top">max-age</td><td valign="top">:</td><td><div></div></td></tr><tr><td style="font-weight:bold;vertical-align:top">path</td><td valign="top">:</td><td><div></div></td></tr><tr><td style="font-weight:bold;vertical-align:top">secure</td><td valign="top">:</td><td><div></div></td></tr><tr><td style="font-weight:bold;vertical-align:top">version</td><td valign="top">:</td><td><div></div></td></tr></table></div></td></tr><tr><td style="font-weight:bold;vertical-align:top">acgroupswithpersist</td><td valign="top">:</td><td><div>nada<table><tr><td style="font-weight:bold;vertical-align:top">comment</td><td valign="top">:</td><td><div></div></td></tr><tr><td style="font-weight:bold;vertical-align:top">domain</td><td valign="top">:</td><td><div></div></td></tr><tr><td style="font-weight:bold;vertical-align:top">expires</td><td valign="top">:</td><td><div></div></td></tr><tr><td style="font-weight:bold;vertical-align:top">httponly</td><td valign="top">:</td><td><div></div></td></tr><tr><td style="font-weight:bold;vertical-align:top">max-age</td><td valign="top">:</td><td><div></div></td></tr><tr><td style="font-weight:bold;vertical-align:top">path</td><td valign="top">:</td><td><div></div></td></tr><tr><td style="font-weight:bold;vertical-align:top">secure</td><td valign="top">:</td><td><div></div></td></tr><tr><td style="font-weight:bold;vertical-align:top">version</td><td valign="top">:</td><td><div></div></td></tr></table></div></td></tr><tr><td style="font-weight:bold;vertical-align:top">acopendivids</td><td valign="top">:</td><td><div>avancado<table><tr><td style="font-weight:bold;vertical-align:top">comment</td><td valign="top">:</td><td><div></div></td></tr><tr><td style="font-weight:bold;vertical-align:top">domain</td><td valign="top">:</td><td><div></div></td></tr><tr><td style="font-weight:bold;vertical-align:top">expires</td><td valign="top">:</td><td><div></div></td></tr><tr><td style="font-weight:bold;vertical-align:top">httponly</td><td valign="top">:</td><td><div></div></td></tr><tr><td style="font-weight:bold;vertical-align:top">max-age</td><td valign="top">:</td><td><div></div></td></tr><tr><td style="font-weight:bold;vertical-align:top">path</td><td valign="top">:</td><td><div></div></td></tr><tr><td style="font-weight:bold;vertical-align:top">secure</td><td valign="top">:</td><td><div></div></td></tr><tr><td style="font-weight:bold;vertical-align:top">version</td><td valign="top">:</td><td><div></div></td></tr></table></div></td></tr><tr><td style="font-weight:bold;vertical-align:top">session_id_admanager</td><td valign="top">:</td><td><div>127.0.0.1-1d5c4243-29fa-40f4-8e32-70fcc2294d73<table><tr><td style="font-weight:bold;vertical-align:top">comment</td><td valign="top">:</td><td><div></div></td></tr><tr><td style="font-weight:bold;vertical-align:top">domain</td><td valign="top">:</td><td><div></div></td></tr><tr><td style="font-weight:bold;vertical-align:top">expires</td><td valign="top">:</td><td><div></div></td></tr><tr><td style="font-weight:bold;vertical-align:top">httponly</td><td valign="top">:</td><td><div></div></td></tr><tr><td style="font-weight:bold;vertical-align:top">max-age</td><td valign="top">:</td><td><div></div></td></tr><tr><td style="font-weight:bold;vertical-align:top">path</td><td valign="top">:</td><td><div></div></td></tr><tr><td style="font-weight:bold;vertical-align:top">secure</td><td valign="top">:</td><td><div></div></td></tr><tr><td style="font-weight:bold;vertical-align:top">version</td><td valign="top">:</td><td><div></div></td></tr></table></div></td></tr></table></div></td></tr><tr><td style="font-weight:bold;vertical-align:top">env</td><td valign="top">:</td><td><div><table><tr><td style="font-weight:bold;vertical-align:top">app_folders</td><td valign="top">:</td><td><div>set([&#x27;/home/fernando/web2py/applications/admanager/&#x27;])</div></td></tr><tr><td style="font-weight:bold;vertical-align:top">applications_parent</td><td valign="top">:</td><td><div>/home/fernando/web2py</div></td></tr><tr><td style="font-weight:bold;vertical-align:top">cmd_args</td><td valign="top">:</td><td><div><table></table></div></td></tr><tr><td style="font-weight:bold;vertical-align:top">cmd_options</td><td valign="top">:</td><td><div>&lt;Values at 0x7fe4b3656a28: {&#x27;verbose&#x27;: False, &#x27;ip&#x27;: &#x27;127.0.0.1&#x27;, &#x27;with_scheduler&#x27;: False, &#x27;ips&#x27;: [&#x27;127.0.1.1&#x27;], &#x27;shutdown_timeout&#x27;: 5, &#x27;taskbar&#x27;: False, &#x27;with_coverage&#x27;: False, &#x27;port&#x27;: 8000, &#x27;maxthreads&#x27;: None, &#x27;softcron&#x27;: False, &#x27;server_name&#x27;: &#x27;fernando-pc&#x27;, &#x27;bpython&#x27;: False, &#x27;nogui&#x27;: False, &#x27;pid_filename&#x27;: &#x27;httpserver.pid&#x27;, &#x27;extcron&#x27;: False, &#x27;runcron&#x27;: False, &#x27;run_system_tests&#x27;: False, &#x27;test&#x27;: None, &#x27;folder&#x27;: &#x27;/home/fernando/web2py&#x27;, &#x27;config&#x27;: &#x27;&#x27;, &#x27;minthreads&#x27;: None, &#x27;winservice&#x27;: &#x27;&#x27;, &#x27;shell&#x27;: None, &#x27;run&#x27;: &#x27;&#x27;, &#x27;log_filename&#x27;: &#x27;httpserver.log&#x27;, &#x27;debuglevel&#x27;: 30, &#x27;args&#x27;: [&#x27;&#x27;], &#x27;socket_timeout&#x27;: 5, &#x27;ssl_ca_certificate&#x27;: None, &#x27;scheduler&#x27;: None, &#x27;profiler_filename&#x27;: None, &#x27;ssl_private_key&#x27;: &#x27;&#x27;, &#x27;scheduler_groups&#x27;: None, &#x27;password&#x27;: &#x27;123456&#x27;, &#x27;request_queue_size&#x27;: 5, &#x27;ssl_certificate&#x27;: &#x27;&#x27;, &#x27;cronjob&#x27;: False, &#x27;numthreads&#x27;: None, &#x27;quiet&#x27;: False, &#x27;interfaces&#x27;: None, &#x27;import_models&#x27;: False, &#x27;timeout&#x27;: 10, &#x27;plain&#x27;: False, &#x27;nobanner&#x27;: False}&gt;</div></td></tr><tr><td style="font-weight:bold;vertical-align:top">content_length</td><td valign="top">:</td><td><div>1347</div></td></tr><tr><td style="font-weight:bold;vertical-align:top">content_type</td><td valign="top">:</td><td><div>multipart/form-data; boundary=----WebKitFormBoundarySScJV2KvfsgBrMnm</div></td></tr><tr><td style="font-weight:bold;vertical-align:top">db_sessions</td><td valign="top">:</td><td><div>set([])</div></td></tr><tr><td style="font-weight:bold;vertical-align:top">debugging</td><td valign="top">:</td><td><div>False</div></td></tr><tr><td style="font-weight:bold;vertical-align:top">gluon_parent</td><td valign="top">:</td><td><div>/home/fernando/web2py</div></td></tr><tr><td style="font-weight:bold;vertical-align:top">http_accept</td><td valign="top">:</td><td><div>text/html,application/xhtml+xml,application/xml;q=0.9,image/webp,*/*;q=0.8</div></td></tr><tr><td style="font-weight:bold;vertical-align:top">http_accept_encoding</td><td valign="top">:</td><td><div>gzip,deflate,sdch</div></td></tr><tr><td style="font-weight:bold;vertical-align:top">http_accept_language</td><td valign="top">:</td><td><div>pt-BR,pt;q=0.8,en-US;q=0.6,en;q=0.4</div></td></tr><tr><td style="font-weight:bold;vertical-align:top">http_cache_control</td><td valign="top">:</td><td><div>max-age=0</div></td></tr><tr><td style="font-weight:bold;vertical-align:top">http_connection</td><td valign="top">:</td><td><div>keep-alive</div></td></tr><tr><td style="font-weight:bold;vertical-align:top">http_content_length</td><td valign="top">:</td><td><div>1347</div></td></tr><tr><td style="font-weight:bold;vertical-align:top">http_content_type</td><td valign="top">:</td><td><div>multipart/form-data; boundary=----WebKitFormBoundarySScJV2KvfsgBrMnm</div></td></tr><tr><td style="font-weight:bold;vertical-align:top">http_cookie</td><td valign="top">:</td><td><div>PHPSESSID=a9o4e6hnbr9qal4kr8huh84sm5; acopendivids=avancado; acgroupswithpersist=nada; session_id_admanager=127.0.0.1-1d5c4243-29fa-40f4-8e32-70fcc2294d73</div></td></tr><tr><td style="font-weight:bold;vertical-align:top">http_host</td><td valign="top">:</td><td><div>127.0.0.1:8000</div></td></tr><tr><td style="font-weight:bold;vertical-align:top">http_origin</td><td valign="top">:</td><td><div>http://127.0.0.1:8000</div></td></tr><tr><td style="font-weight:bold;vertical-align:top">http_referer</td><td valign="top">:</td><td><div>http://127.0.0.1:8000/admanager/funcional/f_troncos_form</div></td></tr><tr><td style="font-weight:bold;vertical-align:top">http_user_agent</td><td valign="top">:</td><td><div>Mozilla/5.0 (X11; Linux x86_64) AppleWebKit/537.36 (KHTML, like Gecko) Chrome/35.0.1916.114 Safari/537.36</div></td></tr><tr><td style="font-weight:bold;vertical-align:top">is_jython</td><td valign="top">:</td><td><div>False</div></td></tr><tr><td style="font-weight:bold;vertical-align:top">is_pypy</td><td valign="top">:</td><td><div>False</div></td></tr><tr><td style="font-weight:bold;vertical-align:top">local_hosts</td><td valign="top">:</td><td><div><table><tr><td><div>::1</div></td></tr><tr><td><div>127.0.1.1</div></td></tr><tr><td><div>fernando-pc</div></td></tr><tr><td><div>::ffff:127.0.0.1</div></td></tr><tr><td><div>127.0.0.1</div></td></tr></table></div></td></tr><tr><td style="font-weight:bold;vertical-align:top">path_info</td><td valign="top">:</td><td><div>/admanager/funcional/f_troncos_form</div></td></tr><tr><td style="font-weight:bold;vertical-align:top">query_string</td><td valign="top">:</td><td><div></div></td></tr><tr><td style="font-weight:bold;vertical-align:top">remote_addr</td><td valign="top">:</td><td><div>127.0.0.1</div></td></tr><tr><td style="font-weight:bold;vertical-align:top">remote_port</td><td valign="top">:</td><td><div>51736</div></td></tr><tr><td style="font-weight:bold;vertical-align:top">request_method</td><td valign="top">:</td><td><div>POST</div></td></tr><tr><td style="font-weight:bold;vertical-align:top">request_uri</td><td valign="top">:</td><td><div>/admanager/funcional/f_troncos_form</div></td></tr><tr><td style="font-weight:bold;vertical-align:top">script_name</td><td valign="top">:</td><td><div></div></td></tr><tr><td style="font-weight:bold;vertical-align:top">server_name</td><td valign="top">:</td><td><div>fernando-pc</div></td></tr><tr><td style="font-weight:bold;vertical-align:top">server_port</td><td valign="top">:</td><td><div>8000</div></td></tr><tr><td style="font-weight:bold;vertical-align:top">server_protocol</td><td valign="top">:</td><td><div>HTTP/1.1</div></td></tr><tr><td style="font-weight:bold;vertical-align:top">server_software</td><td valign="top">:</td><td><div>Rocket 1.2.6</div></td></tr><tr><td style="font-weight:bold;vertical-align:top">web2py_original_uri</td><td valign="top">:</td><td><div>/admanager/funcional/f_troncos_form</div></td></tr><tr><td style="font-weight:bold;vertical-align:top">web2py_path</td><td valign="top">:</td><td><div>/home/fernando/web2py</div></td></tr><tr><td style="font-weight:bold;vertical-align:top">web2py_version</td><td valign="top">:</td><td><div>2.5.1-stable+timestamp.2013.06.06.15.39.19</div></td></tr><tr><td style="font-weight:bold;vertical-align:top">wsgi_errors</td><td valign="top">:</td><td><div>&lt;open file &#x27;&lt;stderr&gt;&#x27;, mode &#x27;w&#x27; at 0x7fe4b79c41e0&gt;</div></td></tr><tr><td style="font-weight:bold;vertical-align:top">wsgi_file_wrapper</td><td valign="top">:</td><td><div>&lt;class wsgiref.util.FileWrapper at 0x7fe4b36d3120&gt;</div></td></tr><tr><td style="font-weight:bold;vertical-align:top">wsgi_input</td><td valign="top">:</td><td><div>&lt;socket._fileobject object at 0x7fe4b00cb7d0&gt;</div></td></tr><tr><td style="font-weight:bold;vertical-align:top">wsgi_multiprocess</td><td valign="top">:</td><td><div>False</div></td></tr><tr><td style="font-weight:bold;vertical-align:top">wsgi_multithread</td><td valign="top">:</td><td><div>True</div></td></tr><tr><td style="font-weight:bold;vertical-align:top">wsgi_run_once</td><td valign="top">:</td><td><div>False</div></td></tr><tr><td style="font-weight:bold;vertical-align:top">wsgi_url_scheme</td><td valign="top">:</td><td><div>http</div></td></tr><tr><td style="font-weight:bold;vertical-align:top">wsgi_version</td><td valign="top">:</td><td><div><table><tr><td><div>1</div></td></tr><tr><td><div>0</div></td></tr></table></div></td></tr></table></div></td></tr><tr><td style="font-weight:bold;vertical-align:top">extension</td><td valign="top">:</td><td><div>html</div></td></tr><tr><td style="font-weight:bold;vertical-align:top">folder</td><td valign="top">:</td><td><div>/home/fernando/web2py/applications/admanager/</div></td></tr><tr><td style="font-weight:bold;vertical-align:top">function</td><td valign="top">:</td><td><div>f_troncos_form</div></td></tr><tr><td style="font-weight:bold;vertical-align:top">get_vars</td><td valign="top">:</td><td><div><table></table></div></td></tr><tr><td style="font-weight:bold;vertical-align:top">global_settings</td><td valign="top">:</td><td><div><table><tr><td style="font-weight:bold;vertical-align:top">app_folders</td><td valign="top">:</td><td><div>set([&#x27;/home/fernando/web2py/applications/admanager/&#x27;])</div></td></tr><tr><td style="font-weight:bold;vertical-align:top">applications_parent</td><td valign="top">:</td><td><div>/home/fernando/web2py</div></td></tr><tr><td style="font-weight:bold;vertical-align:top">cmd_args</td><td valign="top">:</td><td><div><table></table></div></td></tr><tr><td style="font-weight:bold;vertical-align:top">cmd_options</td><td valign="top">:</td><td><div>&lt;Values at 0x7fe4b3656a28: {&#x27;verbose&#x27;: False, &#x27;ip&#x27;: &#x27;127.0.0.1&#x27;, &#x27;with_scheduler&#x27;: False, &#x27;ips&#x27;: [&#x27;127.0.1.1&#x27;], &#x27;shutdown_timeout&#x27;: 5, &#x27;taskbar&#x27;: False, &#x27;with_coverage&#x27;: False, &#x27;port&#x27;: 8000, &#x27;maxthreads&#x27;: None, &#x27;softcron&#x27;: False, &#x27;server_name&#x27;: &#x27;fernando-pc&#x27;, &#x27;bpython&#x27;: False, &#x27;nogui&#x27;: False, &#x27;pid_filename&#x27;: &#x27;httpserver.pid&#x27;, &#x27;extcron&#x27;: False, &#x27;runcron&#x27;: False, &#x27;run_system_tests&#x27;: False, &#x27;test&#x27;: None, &#x27;folder&#x27;: &#x27;/home/fernando/web2py&#x27;, &#x27;config&#x27;: &#x27;&#x27;, &#x27;minthreads&#x27;: None, &#x27;winservice&#x27;: &#x27;&#x27;, &#x27;shell&#x27;: None, &#x27;run&#x27;: &#x27;&#x27;, &#x27;log_filename&#x27;: &#x27;httpserver.log&#x27;, &#x27;debuglevel&#x27;: 30, &#x27;args&#x27;: [&#x27;&#x27;], &#x27;socket_timeout&#x27;: 5, &#x27;ssl_ca_certificate&#x27;: None, &#x27;scheduler&#x27;: None, &#x27;profiler_filename&#x27;: None, &#x27;ssl_private_key&#x27;: &#x27;&#x27;, &#x27;scheduler_groups&#x27;: None, &#x27;password&#x27;: &#x27;123456&#x27;, &#x27;request_queue_size&#x27;: 5, &#x27;ssl_certificate&#x27;: &#x27;&#x27;, &#x27;cronjob&#x27;: False, &#x27;numthreads&#x27;: None, &#x27;quiet&#x27;: False, &#x27;interfaces&#x27;: None, &#x27;import_models&#x27;: False, &#x27;timeout&#x27;: 10, &#x27;plain&#x27;: False, &#x27;nobanner&#x27;: False}&gt;</div></td></tr><tr><td style="font-weight:bold;vertical-align:top">db_sessions</td><td valign="top">:</td><td><div>set([])</div></td></tr><tr><td style="font-weight:bold;vertical-align:top">debugging</td><td valign="top">:</td><td><div>False</div></td></tr><tr><td style="font-weight:bold;vertical-align:top">gluon_parent</td><td valign="top">:</td><td><div>/home/fernando/web2py</div></td></tr><tr><td style="font-weight:bold;vertical-align:top">is_jython</td><td valign="top">:</td><td><div>False</div></td></tr><tr><td style="font-weight:bold;vertical-align:top">is_pypy</td><td valign="top">:</td><td><div>False</div></td></tr><tr><td style="font-weight:bold;vertical-align:top">local_hosts</td><td valign="top">:</td><td><div><table><tr><td><div>::1</div></td></tr><tr><td><div>127.0.1.1</div></td></tr><tr><td><div>fernando-pc</div></td></tr><tr><td><div>::ffff:127.0.0.1</div></td></tr><tr><td><div>127.0.0.1</div></td></tr></table></div></td></tr><tr><td style="font-weight:bold;vertical-align:top">web2py_version</td><td valign="top">:</td><td><div>2.5.1-stable+timestamp.2013.06.06.15.39.19</div></td></tr></table></div></td></tr><tr><td style="font-weight:bold;vertical-align:top">is_https</td><td valign="top">:</td><td><div>False</div></td></tr><tr><td style="font-weight:bold;vertical-align:top">is_local</td><td valign="top">:</td><td><div>True</div></td></tr><tr><td style="font-weight:bold;vertical-align:top">is_restful</td><td valign="top">:</td><td><div>False</div></td></tr><tr><td style="font-weight:bold;vertical-align:top">now</td><td valign="top">:</td><td><div>datetime.datetime(2014, 6, 24, 8, 50, 21, 153400)</div></td></tr><tr><td style="font-weight:bold;vertical-align:top">post_vars</td><td valign="top">:</td><td><div><table><tr><td style="font-weight:bold;vertical-align:top">chamadas_simultaneas</td><td valign="top">:</td><td><div></div></td></tr><tr><td style="font-weight:bold;vertical-align:top">chave</td><td valign="top">:</td><td><div></div></td></tr><tr><td style="font-weight:bold;vertical-align:top">ciclo_conta</td><td valign="top">:</td><td><div></div></td></tr><tr><td style="font-weight:bold;vertical-align:top">csp</td><td valign="top">:</td><td><div></div></td></tr><tr><td style="font-weight:bold;vertical-align:top">ddd</td><td valign="top">:</td><td><div></div></td></tr><tr><td style="font-weight:bold;vertical-align:top">dispositivo</td><td valign="top">:</td><td><div></div></td></tr><tr><td style="font-weight:bold;vertical-align:top">id_empresa</td><td valign="top">:</td><td><div>2</div></td></tr><tr><td style="font-weight:bold;vertical-align:top">prefixo</td><td valign="top">:</td><td><div></div></td></tr><tr><td style="font-weight:bold;vertical-align:top">qtde_max_minutos</td><td valign="top">:</td><td><div></div></td></tr><tr><td style="font-weight:bold;vertical-align:top">transbordo</td><td valign="top">:</td><td><div></div></td></tr><tr><td style="font-weight:bold;vertical-align:top">tronco</td><td valign="top">:</td><td><div></div></td></tr></table></div></td></tr><tr><td style="font-weight:bold;vertical-align:top">url</td><td valign="top">:</td><td><div>/admanager/funcional/f_troncos_form</div></td></tr><tr><td style="font-weight:bold;vertical-align:top">utcnow</td><td valign="top">:</td><td><div>datetime.datetime(2014, 6, 24, 11, 50, 21, 153422)</div></td></tr><tr><td style="font-weight:bold;vertical-align:top">uuid</td><td valign="top">:</td><td><div>admanager/127.0.0.1.2014-06-24.08-50-21.d11b0b8d-b41e-42d6-8aba-90e23808c823</div></td></tr><tr><td style="font-weight:bold;vertical-align:top">vars</td><td valign="top">:</td><td><div><table><tr><td style="font-weight:bold;vertical-align:top">chamadas_simultaneas</td><td valign="top">:</td><td><div></div></td></tr><tr><td style="font-weight:bold;vertical-align:top">chave</td><td valign="top">:</td><td><div></div></td></tr><tr><td style="font-weight:bold;vertical-align:top">ciclo_conta</td><td valign="top">:</td><td><div></div></td></tr><tr><td style="font-weight:bold;vertical-align:top">csp</td><td valign="top">:</td><td><div></div></td></tr><tr><td style="font-weight:bold;vertical-align:top">ddd</td><td valign="top">:</td><td><div></div></td></tr><tr><td style="font-weight:bold;vertical-align:top">dispositivo</td><td valign="top">:</td><td><div></div></td></tr><tr><td style="font-weight:bold;vertical-align:top">id_empresa</td><td valign="top">:</td><td><div>2</div></td></tr><tr><td style="font-weight:bold;vertical-align:top">prefixo</td><td valign="top">:</td><td><div></div></td></tr><tr><td style="font-weight:bold;vertical-align:top">qtde_max_minutos</td><td valign="top">:</td><td><div></div></td></tr><tr><td style="font-weight:bold;vertical-align:top">transbordo</td><td valign="top">:</td><td><div></div></td></tr><tr><td style="font-weight:bold;vertical-align:top">tronco</td><td valign="top">:</td><td><div></div></td></tr></table></div></td></tr><tr><td style="font-weight:bold;vertical-align:top">wsgi</td><td valign="top">:</td><td><div><table><tr><td style="font-weight:bold;vertical-align:top">environ</td><td valign="top">:</td><td><div><table><tr><td style="font-weight:bold;vertical-align:top">CONTENT_LENGTH</td><td valign="top">:</td><td><div>1347</div></td></tr><tr><td style="font-weight:bold;vertical-align:top">CONTENT_TYPE</td><td valign="top">:</td><td><div>multipart/form-data; boundary=----WebKitFormBoundarySScJV2KvfsgBrMnm</div></td></tr><tr><td style="font-weight:bold;vertical-align:top">HTTP_ACCEPT</td><td valign="top">:</td><td><div>text/html,application/xhtml+xml,application/xml;q=0.9,image/webp,*/*;q=0.8</div></td></tr><tr><td style="font-weight:bold;vertical-align:top">HTTP_ACCEPT_ENCODING</td><td valign="top">:</td><td><div>gzip,deflate,sdch</div></td></tr><tr><td style="font-weight:bold;vertical-align:top">HTTP_ACCEPT_LANGUAGE</td><td valign="top">:</td><td><div>pt-BR,pt;q=0.8,en-US;q=0.6,en;q=0.4</div></td></tr><tr><td style="font-weight:bold;vertical-align:top">HTTP_CACHE_CONTROL</td><td valign="top">:</td><td><div>max-age=0</div></td></tr><tr><td style="font-weight:bold;vertical-align:top">HTTP_CONNECTION</td><td valign="top">:</td><td><div>keep-alive</div></td></tr><tr><td style="font-weight:bold;vertical-align:top">HTTP_CONTENT_LENGTH</td><td valign="top">:</td><td><div>1347</div></td></tr><tr><td style="font-weight:bold;vertical-align:top">HTTP_CONTENT_TYPE</td><td valign="top">:</td><td><div>multipart/form-data; boundary=----WebKitFormBoundarySScJV2KvfsgBrMnm</div></td></tr><tr><td style="font-weight:bold;vertical-align:top">HTTP_COOKIE</td><td valign="top">:</td><td><div>PHPSESSID=a9o4e6hnbr9qal4kr8huh84sm5; acopendivids=avancado; acgroupswithpersist=nada; session_id_admanager=127.0.0.1-1d5c4243-29fa-40f4-8e32-70fcc2294d73</div></td></tr><tr><td style="font-weight:bold;vertical-align:top">HTTP_HOST</td><td valign="top">:</td><td><div>127.0.0.1:8000</div></td></tr><tr><td style="font-weight:bold;vertical-align:top">HTTP_ORIGIN</td><td valign="top">:</td><td><div>http://127.0.0.1:8000</div></td></tr><tr><td style="font-weight:bold;vertical-align:top">HTTP_REFERER</td><td valign="top">:</td><td><div>http://127.0.0.1:8000/admanager/funcional/f_troncos_form</div></td></tr><tr><td style="font-weight:bold;vertical-align:top">HTTP_USER_AGENT</td><td valign="top">:</td><td><div>Mozilla/5.0 (X11; Linux x86_64) AppleWebKit/537.36 (KHTML, like Gecko) Chrome/35.0.1916.114 Safari/537.36</div></td></tr><tr><td style="font-weight:bold;vertical-align:top">PATH_INFO</td><td valign="top">:</td><td><div>/admanager/funcional/f_troncos_form</div></td></tr><tr><td style="font-weight:bold;vertical-align:top">QUERY_STRING</td><td valign="top">:</td><td><div></div></td></tr><tr><td style="font-weight:bold;vertical-align:top">REMOTE_ADDR</td><td valign="top">:</td><td><div>127.0.0.1</div></td></tr><tr><td style="font-weight:bold;vertical-align:top">REMOTE_PORT</td><td valign="top">:</td><td><div>51736</div></td></tr><tr><td style="font-weight:bold;vertical-align:top">REQUEST_METHOD</td><td valign="top">:</td><td><div>POST</div></td></tr><tr><td style="font-weight:bold;vertical-align:top">REQUEST_URI</td><td valign="top">:</td><td><div>/admanager/funcional/f_troncos_form</div></td></tr><tr><td style="font-weight:bold;vertical-align:top">SCRIPT_NAME</td><td valign="top">:</td><td><div></div></td></tr><tr><td style="font-weight:bold;vertical-align:top">SERVER_NAME</td><td valign="top">:</td><td><div>fernando-pc</div></td></tr><tr><td style="font-weight:bold;vertical-align:top">SERVER_PORT</td><td valign="top">:</td><td><div>8000</div></td></tr><tr><td style="font-weight:bold;vertical-align:top">SERVER_PROTOCOL</td><td valign="top">:</td><td><div>HTTP/1.1</div></td></tr><tr><td style="font-weight:bold;vertical-align:top">SERVER_SOFTWARE</td><td valign="top">:</td><td><div>Rocket 1.2.6</div></td></tr><tr><td style="font-weight:bold;vertical-align:top">WEB2PY_ORIGINAL_URI</td><td valign="top">:</td><td><div>/admanager/funcional/f_troncos_form</div></td></tr><tr><td style="font-weight:bold;vertical-align:top">wsgi.errors</td><td valign="top">:</td><td><div>&lt;open file &#x27;&lt;stderr&gt;&#x27;, mode &#x27;w&#x27; at 0x7fe4b79c41e0&gt;</div></td></tr><tr><td style="font-weight:bold;vertical-align:top">wsgi.file_wrapper</td><td valign="top">:</td><td><div>&lt;class wsgiref.util.FileWrapper at 0x7fe4b36d3120&gt;</div></td></tr><tr><td style="font-weight:bold;vertical-align:top">wsgi.input</td><td valign="top">:</td><td><div>&lt;open file &#x27;&lt;fdopen&gt;&#x27;, mode &#x27;w+b&#x27; at 0x7fe498f3b390&gt;</div></td></tr><tr><td style="font-weight:bold;vertical-align:top">wsgi.multiprocess</td><td valign="top">:</td><td><div>False</div></td></tr><tr><td style="font-weight:bold;vertical-align:top">wsgi.multithread</td><td valign="top">:</td><td><div>True</div></td></tr><tr><td style="font-weight:bold;vertical-align:top">wsgi.run_once</td><td valign="top">:</td><td><div>False</div></td></tr><tr><td style="font-weight:bold;vertical-align:top">wsgi.url_scheme</td><td valign="top">:</td><td><div>http</div></td></tr><tr><td style="font-weight:bold;vertical-align:top">wsgi.version</td><td valign="top">:</td><td><div>1</div></td></tr></table></div></td></tr></table></div></td></tr></table></div>'
tRp62
sS'frames'
p63
(lp64
(dp65
S'file'
p66
S'/home/fernando/web2py/gluon/restricted.py'
p67
sS'dump'
p68
(dp69
S'environment'
p70
S"{'A': <class 'gluon.html.A'>, 'ANY_OF': <class 'gluon.validators.ANY_OF'>, 'Auth': <class 'gluon.tools.Auth'>, 'B': <class 'gluon.html.B'>, 'BEAUTIFY': <class 'gluon.html.BEAUTIFY'>, 'BODY': <class 'gluon.html.BODY'>, 'BR': <class 'gluon.html.BR'>, 'BUTTON': <class 'gluon.html.BUTTON'>, 'CAT': <class 'gluon.html.CAT'>, 'CENTER': <class 'gluon.html.CENTER'>, ...}"
p71
sS'ccode'
p72
S'<code object <module> at 0x7fe4b31fc7b0, file "/...ions/admanager/controllers/funcional.py", line 4>'
p73
ssS'lnum'
p74
I212
sS'lines'
p75
(dp76
I207
S'    try:'
p77
sI208
S'        if isinstance(code, types.CodeType):'
p78
sI209
S'            ccode = code'
p79
sI210
S'        else:'
p80
sI211
S'            ccode = compile2(code, layer)'
p81
sI212
S'        exec ccode in environment'
p82
sI213
S'    except HTTP:'
p83
sI214
S'        raise'
p84
sI215
S'    except RestrictedError:'
p85
sI216
S'        # do not encapsulate (obfuscate) the original RestrictedError'
p86
ssS'call'
p87
S"(code='# coding=UTF-8\\n\\n######-TRONCOS\\n@auth.requires_lo...\\nresponse._vars=response._caller(f_troncos_form)\\n', environment={'A': <class 'gluon.html.A'>, 'ANY_OF': <class 'gluon.validators.ANY_OF'>, 'Auth': <class 'gluon.tools.Auth'>, 'B': <class 'gluon.html.B'>, 'BEAUTIFY': <class 'gluon.html.BEAUTIFY'>, 'BODY': <class 'gluon.html.BODY'>, 'BR': <class 'gluon.html.BR'>, 'BUTTON': <class 'gluon.html.BUTTON'>, 'CAT': <class 'gluon.html.CAT'>, 'CENTER': <class 'gluon.html.CENTER'>, ...}, layer='/home/fernando/web2py/applications/admanager/controllers/funcional.py')"
p88
sS'func'
p89
S'restricted'
p90
sa(dp91
g66
S'/home/fernando/web2py/applications/admanager/controllers/funcional.py'
p92
sg68
(dp93
sg74
I318
sg75
(dp94
I308
S'\t\ttabela \t= \tdb.f_rotas.id'
p95
sI309
S'\tif funcao \t== \t"f_tarifacao":'
p96
sI310
S'\t\ttabela \t=\tdb.f_tarifacao.id'
p97
sI311
S'\tif funcao \t== \t"f_empresa":'
p98
sI312
S'\t\ttabela \t= db.f_empresa.id'
p99
sI313
S'\tif funcao \t== \t"f_destinos":'
p100
sI314
S'\t\ttabela \t= \tdb.f_destinos.id'
p101
sI315
S''
sI316
S'\tdb(tabela == id_tab).delete()'
p102
sI317
S'\tredirect(URL(funcao))'
p103
ssg87
S'()'
p104
sg89
S'<module>'
p105
sa(dp106
g66
S'/home/fernando/web2py/gluon/globals.py'
p107
sg68
(dp108
S'self'
p109
S'undefined'
p110
sS'f'
S'<function f_troncos_form>'
p111
ssg74
I194
sg75
(dp112
I192
S"        self.delimiters = ('{{', '}}')"
p113
sI193
S'        self._vars = None'
p114
sI194
S'        self._caller = lambda f: f()'
p115
sI195
S'        self._view_environment = None'
p116
sI196
S'        self._custom_commit = None'
p117
sI197
S'        self._custom_rollback = None'
p118
sI198
S''
sI189
S'        self.menu = []             # used by the default view layout'
p119
sI190
S'        self.files = []            # used by web2py_ajax.html'
p120
sI191
S'        self.generic_patterns = []  # patterns to allow generic views'
p121
ssg87
S'(f=<function f_troncos_form>)'
p122
sg89
S'<lambda>'
p123
sa(dp124
g66
S'/home/fernando/web2py/gluon/tools.py'
p125
sg68
(dp126
S'action'
p127
S'<function f_troncos_form>'
p128
sS'a'
S'()'
p129
sS'b'
g21
ssg74
I3022
sg75
(dp130
I3017
S'                    flag = condition'
p131
sI3018
S'                if not flag:'
p132
sI3019
S'                    current.session.flash = self.messages.access_denied'
p133
sI3020
S'                    return call_or_redirect('
p134
sI3021
S'                        self.settings.on_failed_authorization)'
p135
sI3022
S'                return action(*a, **b)'
p136
sI3023
S'            f.__doc__ = action.__doc__'
p137
sI3024
S'            f.__name__ = action.__name__'
p138
sI3025
S'            f.__dict__.update(action.__dict__)'
p139
sI3026
S'            return f'
p140
ssg87
S'(*a=(), **b={})'
p141
sg89
S'f'
sa(dp142
g66
S'/home/fernando/web2py/applications/admanager/controllers/funcional.py'
p143
sg68
(dp144
S'form.process'
p145
S'<bound method SQLFORM.process of <gluon.sqlhtml.SQLFORM object>>'
p146
sS').accepted'
p147
g110
sS'form'
p148
S'<gluon.sqlhtml.SQLFORM object>'
p149
ssg74
I33
sg75
(dp150
I32
S'\t#form.element(_name=\'ciclo_conta\')[\'_value\'] = "teste"'
p151
sI33
S'\tif form.process().accepted:'
p152
sI34
S"\t\tredirect(URL('f_troncos'))"
p153
sI35
S''
sI36
S'\treturn response.render("funcional/form_troncos.html", form=form)'
p154
sI37
S''
sI28
S'\tfor input in form.elements():'
p155
sI29
S"\t\tinput['_class'] = 'form-control'"
p156
sI30
S'\tform.element(_name=\'habilitado\')[\'_class\'] = "checkbox"'
p157
sI31
S''
ssg87
S'()'
p158
sg89
S'f_troncos_form'
p159
sa(dp160
g66
S'/home/fernando/web2py/gluon/html.py'
p161
sg68
(dp162
S'self'
p163
S'<gluon.sqlhtml.SQLFORM object>'
p164
sS'self.validate'
p165
S'<bound method SQLFORM.validate of <gluon.sqlhtml.SQLFORM object>>'
p166
sS'kwargs'
p167
S"{'dbio': True}"
p168
ssg74
I2188
sg75
(dp169
I2183
S'        def action():'
p170
sI2184
S'            return dict(form=SQLFORM(db.table).process(onsuccess=my_callback)'
p171
sI2185
S'        """'
p172
sI2186
S"        kwargs['dbio'] = kwargs.get('dbio', True)"
p173
sI2187
S'                                    # necessary for SQLHTML forms'
p174
sI2188
S'        self.validate(**kwargs)'
p175
sI2189
S'        return self'
p176
sI2190
S''
sI2191
S'    REDIRECT_JS = "window.location=\'%s\';return false"'
p177
sI2192
S''
ssg87
S"(self=<gluon.sqlhtml.SQLFORM object>, **kwargs={'dbio': True})"
p178
sg89
S'process'
p179
sa(dp180
g66
S'/home/fernando/web2py/gluon/html.py'
p181
sg68
(dp182
S'self'
p183
S'<gluon.sqlhtml.SQLFORM object>'
p184
sS'self.accepts'
p185
S'<bound method SQLFORM.accepts of <gluon.sqlhtml.SQLFORM object>>'
p186
sS'kwargs'
p187
S"{'dbio': True, 'request_vars': <Storage {'tronco': '', 'chamadas_simultaneas': ...'dispositivo': '', 'csp': '', 'ciclo_conta': ''}>, 'session': <Storage {'_formkey[login]': '6c7e435c-44b3-4d62...': 1L}>, 'user_groups': {1L: 'administrador'}}>}>}"
p188
ssg74
I2127
sg75
(dp189
I2122
S"        for key in ('message_onsuccess', 'message_onfailure', 'onsuccess',"
p190
sI2123
S"                    'onfailure', 'next', 'message_onchange', 'onchange'):"
p191
sI2124
S'            if key in kwargs:'
p192
sI2125
S'                del kwargs[key]'
p193
sI2126
S''
sI2127
S'        if self.accepts(**kwargs):'
p194
sI2128
S"            if onsuccess == 'flash':"
p195
sI2129
S'                if next:'
p196
sI2130
S'                    current.session.flash = message_onsuccess'
p197
sI2131
S'                else:'
p198
ssg87
S"(self=<gluon.sqlhtml.SQLFORM object>, **kwargs={'dbio': True, 'request_vars': <Storage {'tronco': '', 'chamadas_simultaneas': ...'dispositivo': '', 'csp': '', 'ciclo_conta': ''}>, 'session': <Storage {'_formkey[login]': '6c7e435c-44b3-4d62...': 1L}>, 'user_groups': {1L: 'administrador'}}>}>})"
p199
sg89
S'validate'
p200
sa(dp201
g66
S'/home/fernando/web2py/gluon/sqlhtml.py'
p202
sg68
(dp203
S'self.vars.id'
p204
S'None'
p205
sS'fields'
p206
S"{'add_zero': False, 'chamadas_simultaneas': None, 'chave': None, 'ciclo_conta': None, 'csp': None, 'ddd': None, 'dispositivo': '', 'habilitado': False, 'id_empresa': 2, 'prefixo': None, ...}"
p207
sS'self'
p208
S'<gluon.sqlhtml.SQLFORM object>'
p209
sS'self.vars'
p210
S"<Storage {'habilitado': False, 'ura': False, 'tr...'', 'csp': None, 'id_empresa': '2', 'ddd': None}>"
p211
sS'self.table.insert'
p212
S'<bound method Table.insert of <Table f_troncos (..._conta,ramal_principal,ura,add_zero,id_empresa)>>'
p213
sS'self.table'
p214
S'<Table f_troncos (id,tronco,dispositivo,chamadas...o_conta,ramal_principal,ura,add_zero,id_empresa)>'
p215
ssg74
I1571
sg75
(dp216
I1568
S'                        self.table._db(self.table._id == self.record['
p217
sI1569
S'                                       self.id_field_name]).update(**fields)'
p218
sI1570
S'                else:'
p219
sI1571
S'                    self.vars.id = self.table.insert(**fields)'
p220
sI1572
S'        self.accepted = ret'
p221
sI1573
S'        return ret'
p222
sI1574
S''
sI1575
S'    AUTOTYPES = {'
p223
sI1566
S'                    self.vars.id = self.record[self.id_field_name]'
p224
sI1567
S'                    if fields:'
p225
ssg87
S"(self=<gluon.sqlhtml.SQLFORM object>, request_vars=<Storage {'tronco': '', 'chamadas_simultaneas': ...'dispositivo': '', 'csp': '', 'ciclo_conta': ''}>, session=<Storage {'_formkey[login]': '6c7e435c-44b3-4d62...': 1L}>, 'user_groups': {1L: 'administrador'}}>}>, formname='f_troncos/create', keepvalues=False, onvalidation=None, dbio=True, hideerror=False, detect_record_change=False, **kwargs={})"
p226
sg89
S'accepts'
p227
sa(dp228
g66
S'/home/fernando/web2py/gluon/dal.py'
p229
sg68
(dp230
S'self._listify'
p231
S'<bound method Table._listify of <Table f_troncos..._conta,ramal_principal,ura,add_zero,id_empresa)>>'
p232
sS'fields'
p233
S"{'add_zero': False, 'chamadas_simultaneas': None, 'chave': None, 'ciclo_conta': None, 'csp': None, 'ddd': None, 'dispositivo': '', 'habilitado': False, 'id_empresa': 2, 'prefixo': None, ...}"
p234
sS'self'
p235
S'<Table f_troncos (id,tronco,dispositivo,chamadas...o_conta,ramal_principal,ura,add_zero,id_empresa)>'
p236
sS'ret'
p237
g110
sS'self._db._adapter'
p238
S'<gluon.dal.PostgreSQLAdapter object>'
p239
sS'self._db._adapter.insert'
p240
S'<bound method PostgreSQLAdapter.insert of <gluon.dal.PostgreSQLAdapter object>>'
p241
sS'self._db'
p242
S'<DAL uri="postgres:pg8000:******@127.0.0.1/admanager_dev">'
p243
ssg74
I8598
sg75
(dp244
I8593
S''
sI8594
S'    def insert(self, **fields):'
p245
sI8595
S'        fields = self._defaults(fields)'
p246
sI8596
S'        self._attempt_upload(fields)'
p247
sI8597
S'        if any(f(fields) for f in self._before_insert): return 0'
p248
sI8598
S'        ret =  self._db._adapter.insert(self, self._listify(fields))'
p249
sI8599
S'        if ret and self._after_insert:'
p250
sI8600
S'            fields = Row(fields)'
p251
sI8601
S'            [f(fields,ret) for f in self._after_insert]'
p252
sI8602
S'        return ret'
p253
ssg87
S"(self=<Table f_troncos (id,tronco,dispositivo,chamadas...o_conta,ramal_principal,ura,add_zero,id_empresa)>, **fields={'add_zero': False, 'chamadas_simultaneas': None, 'chave': None, 'ciclo_conta': None, 'csp': None, 'ddd': None, 'dispositivo': '', 'habilitado': False, 'id_empresa': 2, 'prefixo': None, ...})"
p254
sg89
S'insert'
p255
sa(dp256
g66
S'/home/fernando/web2py/gluon/dal.py'
p257
sg68
(dp258
S'e'
S'ProgrammingError(\'ERROR\', \'23502\', \'null value i...madas_simultaneas" violates not-null constraint\')'
p259
ssg74
I1210
sg75
(dp260
I1205
S'            self.execute(query)'
p261
sI1206
S'        except Exception:'
p262
sI1207
S'            e = sys.exc_info()[1]'
p263
sI1208
S"            if hasattr(table,'_on_insert_error'):"
p264
sI1209
S'                return table._on_insert_error(table,fields,e)'
p265
sI1210
S'            raise e'
p266
sI1211
S"        if hasattr(table,'_primarykey'):"
p267
sI1212
S'            return dict([(k[0].name, k[1]) for k in fields \\'
p268
sI1213
S'                             if k[0].name in table._primarykey])'
p269
sI1214
S'        id = self.lastrowid(table)'
p270
ssg87
S"(self=<gluon.dal.PostgreSQLAdapter object>, table=<Table f_troncos (id,tronco,dispositivo,chamadas...o_conta,ramal_principal,ura,add_zero,id_empresa)>, fields=[(<gluon.dal.Field object>, False), (<gluon.dal.Field object>, False), (<gluon.dal.Field object>, ''), (<gluon.dal.Field object>, False), (<gluon.dal.Field object>, ''), (<gluon.dal.Field object>, None), (<gluon.dal.Field object>, None), (<gluon.dal.Field object>, None), (<gluon.dal.Field object>, None), (<gluon.dal.Field object>, None), (<gluon.dal.Field object>, None), (<gluon.dal.Field object>, ''), (<gluon.dal.Field object>, None), (<gluon.dal.Field object>, 2), (<gluon.dal.Field object>, None)])"
p271
sg89
g255
sasS'pyver'
p272
S'Python 2.7.6: /usr/bin/python (prefix: /usr)'
p273
sS'session'
p274
g61
(S's[\x08\x00\x00<div><table><tr><td style="font-weight:bold;vertical-align:top">auth</td><td valign="top">:</td><td><div><table><tr><td style="font-weight:bold;vertical-align:top">expiration</td><td valign="top">:</td><td><div>3600</div></td></tr><tr><td style="font-weight:bold;vertical-align:top">hmac_key</td><td valign="top">:</td><td><div>2a6819fa-ae95-4e59-9ed6-09328e18b797</div></td></tr><tr><td style="font-weight:bold;vertical-align:top">last_visit</td><td valign="top">:</td><td><div>datetime.datetime(2014, 6, 24, 8, 50, 11, 268513)</div></td></tr><tr><td style="font-weight:bold;vertical-align:top">remember</td><td valign="top">:</td><td><div>False</div></td></tr><tr><td style="font-weight:bold;vertical-align:top">user</td><td valign="top">:</td><td><div><table><tr><td style="font-weight:bold;vertical-align:top">email</td><td valign="top">:</td><td><div>root@forip.com.br</div></td></tr><tr><td style="font-weight:bold;vertical-align:top">first_name</td><td valign="top">:</td><td><div>root</div></td></tr><tr><td style="font-weight:bold;vertical-align:top">id</td><td valign="top">:</td><td><div>1L</div></td></tr><tr><td style="font-weight:bold;vertical-align:top">last_name</td><td valign="top">:</td><td><div>root</div></td></tr><tr><td style="font-weight:bold;vertical-align:top">ramal</td><td valign="top">:</td><td><div>0000</div></td></tr><tr><td style="font-weight:bold;vertical-align:top">registration_id</td><td valign="top">:</td><td><div></div></td></tr><tr><td style="font-weight:bold;vertical-align:top">registration_key</td><td valign="top">:</td><td><div></div></td></tr><tr><td style="font-weight:bold;vertical-align:top">reset_password_key</td><td valign="top">:</td><td><div></div></td></tr></table></div></td></tr><tr><td style="font-weight:bold;vertical-align:top">user_groups</td><td valign="top">:</td><td><div><table><tr><td style="font-weight:bold;vertical-align:top">1</td><td valign="top">:</td><td><div>administrador</div></td></tr></table></div></td></tr></table></div></td></tr><tr><td style="font-weight:bold;vertical-align:top">flash</td><td valign="top">:</td><td><div>None</div></td></tr></table></div>'
tRp275
sS'etype'
p276
S"<class 'gluon.contrib.pg8000.errors.ProgrammingError'>"
p277
sS'date'
p278
S'Tue Jun 24 08:50:21 2014'
p279
sS'response'
p280
g61
(S's\xfa\x12\x00\x00<div><table><tr><td style="font-weight:bold;vertical-align:top">body</td><td valign="top">:</td><td><div>&lt;cStringIO.StringO object at 0x7fe498efd0d8&gt;</div></td></tr><tr><td style="font-weight:bold;vertical-align:top">cookies</td><td valign="top">:</td><td><div><table><tr><td style="font-weight:bold;vertical-align:top">session_id_admanager</td><td valign="top">:</td><td><div>127.0.0.1-1d5c4243-29fa-40f4-8e32-70fcc2294d73<table><tr><td style="font-weight:bold;vertical-align:top">comment</td><td valign="top">:</td><td><div></div></td></tr><tr><td style="font-weight:bold;vertical-align:top">domain</td><td valign="top">:</td><td><div></div></td></tr><tr><td style="font-weight:bold;vertical-align:top">expires</td><td valign="top">:</td><td><div></div></td></tr><tr><td style="font-weight:bold;vertical-align:top">httponly</td><td valign="top">:</td><td><div></div></td></tr><tr><td style="font-weight:bold;vertical-align:top">max-age</td><td valign="top">:</td><td><div></div></td></tr><tr><td style="font-weight:bold;vertical-align:top">path</td><td valign="top">:</td><td><div>/</div></td></tr><tr><td style="font-weight:bold;vertical-align:top">secure</td><td valign="top">:</td><td><div></div></td></tr><tr><td style="font-weight:bold;vertical-align:top">version</td><td valign="top">:</td><td><div></div></td></tr></table></div></td></tr></table></div></td></tr><tr><td style="font-weight:bold;vertical-align:top">delimiters</td><td valign="top">:</td><td><div><table><tr><td><div>{{</div></td></tr><tr><td><div>}}</div></td></tr></table></div></td></tr><tr><td style="font-weight:bold;vertical-align:top">files</td><td valign="top">:</td><td><div><table></table></div></td></tr><tr><td style="font-weight:bold;vertical-align:top">flash</td><td valign="top">:</td><td><div></div></td></tr><tr><td style="font-weight:bold;vertical-align:top">generic_patterns</td><td valign="top">:</td><td><div><table><tr><td><div>*</div></td></tr></table></div></td></tr><tr><td style="font-weight:bold;vertical-align:top">headers</td><td valign="top">:</td><td><div><table><tr><td style="font-weight:bold;vertical-align:top">X-Powered-By</td><td valign="top">:</td><td><div>web2py</div></td></tr></table></div></td></tr><tr><td style="font-weight:bold;vertical-align:top">menu</td><td valign="top">:</td><td><div><table></table></div></td></tr><tr><td style="font-weight:bold;vertical-align:top">meta</td><td valign="top">:</td><td><div><table><tr><td style="font-weight:bold;vertical-align:top">keywords</td><td valign="top">:</td><td><div>chave, outra, e outra</div></td></tr></table></div></td></tr><tr><td style="font-weight:bold;vertical-align:top">models_to_run</td><td valign="top">:</td><td><div><table><tr><td><div>^\\w+\\.py$</div></td></tr><tr><td><div>^funcional/\\w+\\.py$</div></td></tr><tr><td><div>^funcional/f_troncos_form/\\w+\\.py$</div></td></tr></table></div></td></tr><tr><td style="font-weight:bold;vertical-align:top">postprocessing</td><td valign="top">:</td><td><div><table></table></div></td></tr><tr><td style="font-weight:bold;vertical-align:top">session_cookie_expires</td><td valign="top">:</td><td><div>None</div></td></tr><tr><td style="font-weight:bold;vertical-align:top">session_data_name</td><td valign="top">:</td><td><div>session_data_admanager</div></td></tr><tr><td style="font-weight:bold;vertical-align:top">session_file</td><td valign="top">:</td><td><div>&lt;open file &#x27;/home/fernando/web2py/applications/admanager/sessions/127.0.0.1-1d5c4243-29fa-40f4-8e32-70fcc2294d73&#x27;, mode &#x27;rb+&#x27; at 0x7fe4b0026c00&gt;</div></td></tr><tr><td style="font-weight:bold;vertical-align:top">session_filename</td><td valign="top">:</td><td><div>/home/fernando/web2py/applications/admanager/sessions/127.0.0.1-1d5c4243-29fa-40f4-8e32-70fcc2294d73</div></td></tr><tr><td style="font-weight:bold;vertical-align:top">session_id</td><td valign="top">:</td><td><div>127.0.0.1-1d5c4243-29fa-40f4-8e32-70fcc2294d73</div></td></tr><tr><td style="font-weight:bold;vertical-align:top">session_id_name</td><td valign="top">:</td><td><div>session_id_admanager</div></td></tr><tr><td style="font-weight:bold;vertical-align:top">session_locked</td><td valign="top">:</td><td><div>True</div></td></tr><tr><td style="font-weight:bold;vertical-align:top">session_new</td><td valign="top">:</td><td><div>False</div></td></tr><tr><td style="font-weight:bold;vertical-align:top">session_storage_type</td><td valign="top">:</td><td><div>file</div></td></tr><tr><td style="font-weight:bold;vertical-align:top">status</td><td valign="top">:</td><td><div>200</div></td></tr><tr><td style="font-weight:bold;vertical-align:top">title</td><td valign="top">:</td><td><div>Troncos</div></td></tr><tr><td style="font-weight:bold;vertical-align:top">view</td><td valign="top">:</td><td><div>funcional/f_troncos_form.html</div></td></tr></table></div>'
tRp281
sS'locals'
p282
(dp283
S'query'
p284
S'"INSERT INTO f_troncos(habilitado,ura,tronco,add_...\'\',NULL,NULL,NULL,NULL,NULL,NULL,\'\',NULL,2,NULL);"'
p285
sS'self'
p286
S'<gluon.dal.PostgreSQLAdapter object>'
p287
sS'e'
S'ProgrammingError(\'ERROR\', \'23502\', \'null value i...madas_simultaneas" violates not-null constraint\')'
p288
sS'fields'
p289
S"[(<gluon.dal.Field object>, False), (<gluon.dal.Field object>, False), (<gluon.dal.Field object>, ''), (<gluon.dal.Field object>, False), (<gluon.dal.Field object>, ''), (<gluon.dal.Field object>, None), (<gluon.dal.Field object>, None), (<gluon.dal.Field object>, None), (<gluon.dal.Field object>, None), (<gluon.dal.Field object>, None), (<gluon.dal.Field object>, None), (<gluon.dal.Field object>, ''), (<gluon.dal.Field object>, None), (<gluon.dal.Field object>, 2), (<gluon.dal.Field object>, None)]"
p290
sS'table'
p291
S'<Table f_troncos (id,tronco,dispositivo,chamadas...o_conta,ramal_principal,ura,add_zero,id_empresa)>'
p292
sssS'traceback'
p293
S'Traceback (most recent call last):\n  File "/home/fernando/web2py/gluon/restricted.py", line 212, in restricted\n    exec ccode in environment\n  File "/home/fernando/web2py/applications/admanager/controllers/funcional.py", line 318, in <module>\n  File "/home/fernando/web2py/gluon/globals.py", line 194, in <lambda>\n    self._caller = lambda f: f()\n  File "/home/fernando/web2py/gluon/tools.py", line 3022, in f\n    return action(*a, **b)\n  File "/home/fernando/web2py/applications/admanager/controllers/funcional.py", line 33, in f_troncos_form\n    if form.process().accepted:\n  File "/home/fernando/web2py/gluon/html.py", line 2188, in process\n    self.validate(**kwargs)\n  File "/home/fernando/web2py/gluon/html.py", line 2127, in validate\n    if self.accepts(**kwargs):\n  File "/home/fernando/web2py/gluon/sqlhtml.py", line 1571, in accepts\n    self.vars.id = self.table.insert(**fields)\n  File "/home/fernando/web2py/gluon/dal.py", line 8598, in insert\n    ret =  self._db._adapter.insert(self, self._listify(fields))\n  File "/home/fernando/web2py/gluon/dal.py", line 1210, in insert\n    raise e\nProgrammingError: (\'ERROR\', \'23502\', \'null value in column "chamadas_simultaneas" violates not-null constraint\')\n'
p294
s.